ccopy_reg
_reconstructor
p0
(cnetwork
Network
p1
c__builtin__
object
p2
Ntp3
Rp4
(dp5
S'meta'
p6
S'Singaren.graphml'
p7
sS'ID_map'
p8
(dp9
I0
I1
sI1
I2
sI2
I3
sI3
I4
sI4
I5
sI5
I6
sI6
I7
sI7
I8
sI8
I9
sI9
I10
sI10
I11
sI11
I12
sI12
I13
sI13
I14
sI14
I15
sI15
I16
sI16
I17
sI17
I18
sI18
I19
sI19
I20
sI20
I21
sI21
I22
sI22
I23
sI23
I24
sI24
I25
sI25
I26
sI26
I27
sI27
I28
sI28
I29
sI29
I30
sI30
I31
sI31
I32
sI32
I33
sI33
I34
sI34
I35
sI35
I36
sI36
I37
sI37
I38
sI38
I39
sI39
I40
sI40
I41
sI41
I42
sI42
I43
sI43
I44
sI44
I45
sI45
I46
sI46
I47
sI47
I48
sI48
I49
sI49
I50
sI50
I51
sI51
I52
sI52
I53
sI53
I54
sI54
I55
sI55
I56
sI56
I57
sI57
I58
sI58
I59
sI59
I60
sI60
I61
sI62
I62
sI63
I63
sI64
I64
sI65
I65
sI66
I66
sI67
I67
sI68
I68
sI69
I69
sI70
I70
sI71
I71
sI72
I72
sI73
I73
sI75
I74
sI76
I75
sI77
I76
sI79
I77
sI81
I78
sI82
I79
sI83
I80
sI84
I81
sI87
I82
sI88
I83
sI89
I84
sI90
I85
sI91
I86
sI92
I87
sI93
I88
sI94
I89
sI95
I90
sI96
I91
sI97
I92
sI98
I93
sI99
I94
sI100
I95
sI101
I96
sI102
I97
sI103
I98
sI104
I99
sI105
I100
sI106
I101
sI107
I102
sI108
I103
sI109
I104
sI110
I105
sI111
I106
sI112
I107
sI113
I108
sI114
I109
sI115
I110
sI116
I111
sI117
I112
sI118
I113
sI119
I114
sI120
I115
sI121
I116
sI122
I117
sI123
I118
sI124
I119
sI125
I120
sI126
I121
sI127
I122
sI128
I123
sI129
I124
sI130
I125
sI131
I126
sI132
I127
sI133
I128
sI134
I129
sI135
I130
sI136
I131
sI137
I132
sI138
I133
sI139
I134
sI140
I135
sI141
I136
sI142
I137
sI143
I138
sI144
I139
sI145
I140
sI146
I141
sI147
I142
sI148
I143
sI149
I144
sI150
I145
sI151
I146
sI152
I147
sI153
I148
sI154
I149
sI155
I150
sI156
I151
sI157
I152
sI158
I153
sI159
I154
sI160
I155
sI161
I156
sI162
I157
sI163
I158
sI164
I159
sI165
I160
sI166
I161
sI167
I162
sI168
I163
sI169
I164
sI170
I165
sI171
I166
sI173
I167
sI175
I168
sI176
I169
sI177
I170
sI178
I171
sI179
I172
sI180
I173
sI181
I174
sI182
I175
sI183
I176
sI184
I177
sI185
I178
sI186
I179
sI187
I180
sI188
I181
sI189
I182
sI190
I183
sI191
I184
sI192
I185
sI193
I186
sI194
I187
sI195
I188
sI196
I189
sI197
I190
sI198
I191
sI199
I192
sI200
I193
sI201
I194
sI202
I195
sI203
I196
sI204
I197
sI205
I198
sI206
I199
sI207
I200
sI208
I201
sI209
I202
sI210
I203
sI211
I204
sI212
I205
sI213
I206
sI214
I207
sI215
I208
sI216
I209
sI217
I210
sI218
I211
sI219
I212
sI220
I213
sI221
I214
sI222
I215
sI223
I216
sI224
I217
sI225
I218
sI226
I219
sI227
I220
sI228
I221
sI229
I222
sI230
I223
sI231
I224
sI232
I225
sI233
I226
sI234
I227
sI235
I228
sI236
I229
sI237
I230
sI238
I231
sI239
I232
sI240
I233
sI241
I234
sI242
I235
sI243
I236
sI244
I237
sI245
I238
sI246
I239
sI247
I240
sI248
I241
sI249
I242
sI250
I243
sI251
I244
sI252
I245
sI253
I246
sI254
I247
sI255
I248
sI256
I249
sI257
I250
sI258
I251
sI259
I252
sI260
I253
sI261
I254
sI262
I255
sI263
I256
sI264
I257
sI265
I258
sI266
I259
sI267
I260
sI268
I261
sI269
I262
sI270
I263
sI271
I264
sI272
I265
sI273
I266
sI274
I267
sI275
I268
sI276
I269
sI277
I270
sI278
I271
sI279
I272
sI280
I273
sI281
I274
sI282
I275
sI283
I276
sI284
I277
sI285
I278
sI286
I279
sI287
I280
sI288
I281
sI289
I282
sI290
I283
sI291
I284
sI292
I285
sI293
I286
sI294
I287
sI295
I288
sI296
I289
sI297
I290
sI298
I291
sI299
I292
sI300
I293
sI301
I294
sI302
I295
sI303
I296
sI304
I297
sI305
I298
sI306
I299
sI307
I300
sI308
I301
sI309
I302
sI310
I303
sI311
I304
sI312
I305
sI313
I306
sI314
I307
sI315
I308
sI316
I309
sI317
I310
sI318
I311
sI319
I312
sI320
I313
sI321
I314
sI322
I315
sI323
I316
sI324
I317
sI325
I318
sI326
I319
sI327
I320
sI328
I321
sI329
I322
sI330
I323
sI331
I324
sI332
I325
sI333
I326
sI334
I327
sI335
I328
sI336
I329
sI337
I330
sI338
I331
sI339
I332
sI340
I333
sI341
I334
sI342
I335
sI343
I336
sI344
I337
sI345
I338
sI346
I339
sI347
I340
ssS'topology'
p10
g0
(cnetworkx.classes.multigraph
MultiGraph
p11
g2
Ntp12
Rp13
(dp14
S'node'
p15
(dp16
I1
(dp17
g15
g0
(covsswitch
OVSSwitch
p18
g2
Ntp19
Rp20
(dp21
S'tables'
p22
(lp23
sS'name'
p24
S'ovs-sw0'
p25
sS'ip'
p26
NsS'ID'
p27
I0
sS'mac'
p28
NsS'msk'
p29
NsS'dpid'
p30
NsS'ports'
p31
(dp32
I0
g0
(clink
Link
p33
g2
Ntp34
Rp35
(dp36
S'latency'
p37
I70
sS'a_port'
p38
I0
sS'b_port'
p39
I0
sS'b_node'
p40
I9
sS'throughput'
p41
I10
sS'a_node'
p42
I0
sbsI1
g0
(g33
g2
Ntp43
Rp44
(dp45
g37
I10
sg38
I1
sg39
I0
sg40
I11
sg41
I10
sg42
I0
sbsI2
g0
(g33
g2
Ntp46
Rp47
(dp48
g37
I10
sg38
I2
sg39
I0
sg40
I12
sg41
I10
sg42
I0
sbssS'opts'
p49
(dp50
sbssI2
(dp51
g15
g0
(g18
g2
Ntp52
Rp53
(dp54
g22
(lp55
sg24
S'ovs-sw1'
p56
sg26
Nsg27
I1
sg28
Nsg29
Nsg30
Nsg31
(dp57
I0
g0
(g33
g2
Ntp58
Rp59
(dp60
g37
I70
sg38
I0
sg39
I1
sg40
I9
sg41
I10
sg42
I1
sbsI1
g0
(g33
g2
Ntp61
Rp62
(dp63
g37
I10
sg38
I1
sg39
I0
sg40
I43
sg41
I10
sg42
I1
sbsI2
g0
(g33
g2
Ntp64
Rp65
(dp66
g37
I10
sg38
I2
sg39
I0
sg40
I44
sg41
I10
sg42
I1
sbssg49
(dp67
sbssI3
(dp68
g15
g0
(g18
g2
Ntp69
Rp70
(dp71
g22
(lp72
sg24
S'ovs-sw2'
p73
sg26
Nsg27
I2
sg28
Nsg29
Nsg30
Nsg31
(dp74
I0
g0
(g33
g2
Ntp75
Rp76
(dp77
g37
I70
sg38
I0
sg39
I2
sg40
I9
sg41
I10
sg42
I2
sbsI1
g0
(g33
g2
Ntp78
Rp79
(dp80
g37
I10
sg38
I1
sg39
I0
sg40
I59
sg41
I10
sg42
I2
sbsI2
g0
(g33
g2
Ntp81
Rp82
(dp83
g37
I10
sg38
I2
sg39
I0
sg40
I60
sg41
I10
sg42
I2
sbssg49
(dp84
sbssI4
(dp85
g15
g0
(g18
g2
Ntp86
Rp87
(dp88
g22
(lp89
sg24
S'ovs-sw3'
p90
sg26
Nsg27
I3
sg28
Nsg29
Nsg30
Nsg31
(dp91
I0
g0
(g33
g2
Ntp92
Rp93
(dp94
g37
I70
sg38
I0
sg39
I3
sg40
I9
sg41
I10
sg42
I3
sbsI1
g0
(g33
g2
Ntp95
Rp96
(dp97
g37
I10
sg38
I1
sg39
I0
sg40
I67
sg41
I10
sg42
I3
sbsI2
g0
(g33
g2
Ntp98
Rp99
(dp100
g37
I10
sg38
I2
sg39
I0
sg40
I68
sg41
I10
sg42
I3
sbssg49
(dp101
sbssI5
(dp102
g15
g0
(g18
g2
Ntp103
Rp104
(dp105
g22
(lp106
sg24
S'ovs-sw4'
p107
sg26
Nsg27
I4
sg28
Nsg29
Nsg30
Nsg31
(dp108
I0
g0
(g33
g2
Ntp109
Rp110
(dp111
g37
I70
sg38
I0
sg39
I4
sg40
I9
sg41
I10
sg42
I4
sbsI1
g0
(g33
g2
Ntp112
Rp113
(dp114
g37
I10
sg38
I1
sg39
I0
sg40
I76
sg41
I10
sg42
I4
sbsI2
g0
(g33
g2
Ntp115
Rp116
(dp117
g37
I10
sg38
I2
sg39
I0
sg40
I77
sg41
I10
sg42
I4
sbssg49
(dp118
sbssI6
(dp119
g15
g0
(g18
g2
Ntp120
Rp121
(dp122
g22
(lp123
sg24
S'ovs-sw5'
p124
sg26
Nsg27
I5
sg28
Nsg29
Nsg30
Nsg31
(dp125
I0
g0
(g33
g2
Ntp126
Rp127
(dp128
g37
I70
sg38
I0
sg39
I5
sg40
I9
sg41
I10
sg42
I5
sbsI1
g0
(g33
g2
Ntp129
Rp130
(dp131
g37
I10
sg38
I1
sg39
I0
sg40
I90
sg41
I10
sg42
I5
sbsI2
g0
(g33
g2
Ntp132
Rp133
(dp134
g37
I10
sg38
I2
sg39
I0
sg40
I89
sg41
I10
sg42
I5
sbssg49
(dp135
sbssI7
(dp136
g15
g0
(g18
g2
Ntp137
Rp138
(dp139
g22
(lp140
sg24
S'ovs-sw6'
p141
sg26
Nsg27
I6
sg28
Nsg29
Nsg30
Nsg31
(dp142
I0
g0
(g33
g2
Ntp143
Rp144
(dp145
g37
I70
sg38
I0
sg39
I6
sg40
I9
sg41
I10
sg42
I6
sbsI1
g0
(g33
g2
Ntp146
Rp147
(dp148
g37
I10
sg38
I1
sg39
I0
sg40
I163
sg41
I10
sg42
I6
sbsI2
g0
(g33
g2
Ntp149
Rp150
(dp151
g37
I10
sg38
I2
sg39
I0
sg40
I164
sg41
I10
sg42
I6
sbssg49
(dp152
sbssI8
(dp153
g15
g0
(g18
g2
Ntp154
Rp155
(dp156
g22
(lp157
sg24
S'ovs-sw7'
p158
sg26
Nsg27
I7
sg28
Nsg29
Nsg30
Nsg31
(dp159
I0
g0
(g33
g2
Ntp160
Rp161
(dp162
g37
I10
sg38
I0
sg39
I0
sg40
I176
sg41
I10
sg42
I7
sbsI1
g0
(g33
g2
Ntp163
Rp164
(dp165
g37
I70
sg38
I1
sg39
I7
sg40
I9
sg41
I10
sg42
I7
sbsI2
g0
(g33
g2
Ntp166
Rp167
(dp168
g37
I10
sg38
I2
sg39
I0
sg40
I177
sg41
I10
sg42
I7
sbssg49
(dp169
sbssI9
(dp170
g15
g0
(g18
g2
Ntp171
Rp172
(dp173
g22
(lp174
sg24
S'ovs-sw8'
p175
sg26
Nsg27
I8
sg28
Nsg29
Nsg30
Nsg31
(dp176
I0
g0
(g33
g2
Ntp177
Rp178
(dp179
g37
I70
sg38
I0
sg39
I8
sg40
I9
sg41
I10
sg42
I8
sbsI1
g0
(g33
g2
Ntp180
Rp181
(dp182
g37
I10
sg38
I1
sg39
I0
sg40
I250
sg41
I10
sg42
I8
sbsI2
g0
(g33
g2
Ntp183
Rp184
(dp185
g37
I10
sg38
I2
sg39
I0
sg40
I251
sg41
I10
sg42
I8
sbssg49
(dp186
sbssI10
(dp187
g15
g0
(g18
g2
Ntp188
Rp189
(dp190
g22
(lp191
sg24
S'ovs-sw9'
p192
sg26
Nsg27
I9
sg28
Nsg29
Nsg30
Nsg31
(dp193
I0
g35
sI1
g59
sI2
g76
sI3
g93
sI4
g110
sI5
g127
sI6
g144
sI7
g164
sI8
g178
sI9
g0
(g33
g2
Ntp194
Rp195
(dp196
g37
I70
sg38
I9
sg39
I0
sg40
I10
sg41
I10
sg42
I9
sbsI10
g0
(g33
g2
Ntp197
Rp198
(dp199
g37
I10
sg38
I10
sg39
I0
sg40
I267
sg41
I10
sg42
I9
sbsI11
g0
(g33
g2
Ntp200
Rp201
(dp202
g37
I10
sg38
I11
sg39
I0
sg40
I266
sg41
I10
sg42
I9
sbssg49
(dp203
sbssI11
(dp204
g15
g0
(g18
g2
Ntp205
Rp206
(dp207
g22
(lp208
sg24
S'ovs-sw10'
p209
sg26
Nsg27
I10
sg28
Nsg29
Nsg30
Nsg31
(dp210
I0
g195
sI1
g0
(g33
g2
Ntp211
Rp212
(dp213
g37
I10
sg38
I1
sg39
I0
sg40
I274
sg41
I10
sg42
I10
sbsI2
g0
(g33
g2
Ntp214
Rp215
(dp216
g37
I10
sg38
I2
sg39
I0
sg40
I275
sg41
I10
sg42
I10
sbssg49
(dp217
sbssI12
(dp218
g15
g0
(g18
g2
Ntp219
Rp220
(dp221
g22
(lp222
sg24
S'ovs-sw11'
p223
sg26
Nsg27
I11
sg28
Nsg29
Nsg30
Nsg31
(dp224
I0
g44
sI1
g0
(g33
g2
Ntp225
Rp226
(dp227
g37
I10
sg38
I1
sg39
I0
sg40
I25
sg41
I10
sg42
I11
sbsI2
g0
(g33
g2
Ntp228
Rp229
(dp230
g37
I10
sg38
I2
sg39
I0
sg40
I26
sg41
I10
sg42
I11
sbsI3
g0
(g33
g2
Ntp231
Rp232
(dp233
g37
I10
sg38
I3
sg39
I0
sg40
I27
sg41
I10
sg42
I11
sbsI4
g0
(g33
g2
Ntp234
Rp235
(dp236
g37
I10
sg38
I4
sg39
I1
sg40
I12
sg41
I10
sg42
I11
sbssg49
(dp237
sbssI13
(dp238
g15
g0
(g18
g2
Ntp239
Rp240
(dp241
g22
(lp242
sg24
S'ovs-sw12'
p243
sg26
Nsg27
I12
sg28
Nsg29
Nsg30
Nsg31
(dp244
I0
g47
sI1
g235
sI2
g0
(g33
g2
Ntp245
Rp246
(dp247
g37
I10
sg38
I2
sg39
I0
sg40
I40
sg41
I10
sg42
I12
sbsI3
g0
(g33
g2
Ntp248
Rp249
(dp250
g37
I10
sg38
I3
sg39
I0
sg40
I41
sg41
I10
sg42
I12
sbsI4
g0
(g33
g2
Ntp251
Rp252
(dp253
g37
I10
sg38
I4
sg39
I0
sg40
I42
sg41
I10
sg42
I12
sbssg49
(dp254
sbssI14
(dp255
g15
g0
(g18
g2
Ntp256
Rp257
(dp258
g22
(lp259
sg24
S'ovs-sw13'
p260
sg26
Nsg27
I13
sg28
Nsg29
Nsg30
Nsg31
(dp261
I0
g0
(g33
g2
Ntp262
Rp263
(dp264
g37
I10
sg38
I0
sg39
I1
sg40
I25
sg41
I10
sg42
I13
sbsI1
g0
(g33
g2
Ntp265
Rp266
(dp267
g37
I10
sg38
I1
sg39
I0
sg40
I22
sg41
I10
sg42
I13
sbssg49
(dp268
sbssI15
(dp269
g15
g0
(g18
g2
Ntp270
Rp271
(dp272
g22
(lp273
sg24
S'ovs-sw14'
p274
sg26
Nsg27
I14
sg28
Nsg29
Nsg30
Nsg31
(dp275
I0
g0
(g33
g2
Ntp276
Rp277
(dp278
g37
I10
sg38
I0
sg39
I1
sg40
I26
sg41
I10
sg42
I14
sbsI1
g0
(g33
g2
Ntp279
Rp280
(dp281
g37
I10
sg38
I1
sg39
I1
sg40
I22
sg41
I10
sg42
I14
sbssg49
(dp282
sbssI16
(dp283
g15
g0
(g18
g2
Ntp284
Rp285
(dp286
g22
(lp287
sg24
S'ovs-sw15'
p288
sg26
Nsg27
I15
sg28
Nsg29
Nsg30
Nsg31
(dp289
I0
g0
(g33
g2
Ntp290
Rp291
(dp292
g37
I10
sg38
I0
sg39
I1
sg40
I27
sg41
I10
sg42
I15
sbsI1
g0
(g33
g2
Ntp293
Rp294
(dp295
g37
I10
sg38
I1
sg39
I2
sg40
I22
sg41
I10
sg42
I15
sbssg49
(dp296
sbssI17
(dp297
g15
g0
(g18
g2
Ntp298
Rp299
(dp300
g22
(lp301
sg24
S'ovs-sw16'
p302
sg26
Nsg27
I16
sg28
Nsg29
Nsg30
Nsg31
(dp303
I0
g0
(g33
g2
Ntp304
Rp305
(dp306
g37
I10
sg38
I0
sg39
I2
sg40
I25
sg41
I10
sg42
I16
sbsI1
g0
(g33
g2
Ntp307
Rp308
(dp309
g37
I10
sg38
I1
sg39
I0
sg40
I23
sg41
I10
sg42
I16
sbssg49
(dp310
sbssI18
(dp311
g15
g0
(g18
g2
Ntp312
Rp313
(dp314
g22
(lp315
sg24
S'ovs-sw17'
p316
sg26
Nsg27
I17
sg28
Nsg29
Nsg30
Nsg31
(dp317
I0
g0
(g33
g2
Ntp318
Rp319
(dp320
g37
I10
sg38
I0
sg39
I2
sg40
I26
sg41
I10
sg42
I17
sbsI1
g0
(g33
g2
Ntp321
Rp322
(dp323
g37
I10
sg38
I1
sg39
I1
sg40
I23
sg41
I10
sg42
I17
sbssg49
(dp324
sbssI19
(dp325
g15
g0
(g18
g2
Ntp326
Rp327
(dp328
g22
(lp329
sg24
S'ovs-sw18'
p330
sg26
Nsg27
I18
sg28
Nsg29
Nsg30
Nsg31
(dp331
I0
g0
(g33
g2
Ntp332
Rp333
(dp334
g37
I10
sg38
I0
sg39
I2
sg40
I27
sg41
I10
sg42
I18
sbsI1
g0
(g33
g2
Ntp335
Rp336
(dp337
g37
I10
sg38
I1
sg39
I2
sg40
I23
sg41
I10
sg42
I18
sbssg49
(dp338
sbssI20
(dp339
g15
g0
(g18
g2
Ntp340
Rp341
(dp342
g22
(lp343
sg24
S'ovs-sw19'
p344
sg26
Nsg27
I19
sg28
Nsg29
Nsg30
Nsg31
(dp345
I0
g0
(g33
g2
Ntp346
Rp347
(dp348
g37
I10
sg38
I0
sg39
I0
sg40
I24
sg41
I10
sg42
I19
sbsI1
g0
(g33
g2
Ntp349
Rp350
(dp351
g37
I10
sg38
I1
sg39
I3
sg40
I25
sg41
I10
sg42
I19
sbssg49
(dp352
sbssI21
(dp353
g15
g0
(g18
g2
Ntp354
Rp355
(dp356
g22
(lp357
sg24
S'ovs-sw20'
p358
sg26
Nsg27
I20
sg28
Nsg29
Nsg30
Nsg31
(dp359
I0
g0
(g33
g2
Ntp360
Rp361
(dp362
g37
I10
sg38
I0
sg39
I1
sg40
I24
sg41
I10
sg42
I20
sbsI1
g0
(g33
g2
Ntp363
Rp364
(dp365
g37
I10
sg38
I1
sg39
I3
sg40
I26
sg41
I10
sg42
I20
sbssg49
(dp366
sbssI22
(dp367
g15
g0
(g18
g2
Ntp368
Rp369
(dp370
g22
(lp371
sg24
S'ovs-sw21'
p372
sg26
Nsg27
I21
sg28
Nsg29
Nsg30
Nsg31
(dp373
I0
g0
(g33
g2
Ntp374
Rp375
(dp376
g37
I10
sg38
I0
sg39
I2
sg40
I24
sg41
I10
sg42
I21
sbsI1
g0
(g33
g2
Ntp377
Rp378
(dp379
g37
I10
sg38
I1
sg39
I3
sg40
I27
sg41
I10
sg42
I21
sbssg49
(dp380
sbssI23
(dp381
g15
g0
(g18
g2
Ntp382
Rp383
(dp384
g22
(lp385
sg24
S'ovs-sw22'
p386
sg26
Nsg27
I22
sg28
Nsg29
Nsg30
Nsg31
(dp387
I0
g266
sI1
g280
sI2
g294
ssg49
(dp388
sbssI24
(dp389
g15
g0
(g18
g2
Ntp390
Rp391
(dp392
g22
(lp393
sg24
S'ovs-sw23'
p394
sg26
Nsg27
I23
sg28
Nsg29
Nsg30
Nsg31
(dp395
I0
g308
sI1
g322
sI2
g336
ssg49
(dp396
sbssI25
(dp397
g15
g0
(g18
g2
Ntp398
Rp399
(dp400
g22
(lp401
sg24
S'ovs-sw24'
p402
sg26
Nsg27
I24
sg28
Nsg29
Nsg30
Nsg31
(dp403
I0
g347
sI1
g361
sI2
g375
ssg49
(dp404
sbssI26
(dp405
g15
g0
(g18
g2
Ntp406
Rp407
(dp408
g22
(lp409
sg24
S'ovs-sw25'
p410
sg26
Nsg27
I25
sg28
Nsg29
Nsg30
Nsg31
(dp411
I0
g226
sI1
g263
sI2
g305
sI3
g350
ssg49
(dp412
sbssI27
(dp413
g15
g0
(g18
g2
Ntp414
Rp415
(dp416
g22
(lp417
sg24
S'ovs-sw26'
p418
sg26
Nsg27
I26
sg28
Nsg29
Nsg30
Nsg31
(dp419
I0
g229
sI1
g277
sI2
g319
sI3
g364
ssg49
(dp420
sbssI28
(dp421
g15
g0
(g18
g2
Ntp422
Rp423
(dp424
g22
(lp425
sg24
S'ovs-sw27'
p426
sg26
Nsg27
I27
sg28
Nsg29
Nsg30
Nsg31
(dp427
I0
g232
sI1
g291
sI2
g333
sI3
g378
ssg49
(dp428
sbssI29
(dp429
g15
g0
(g18
g2
Ntp430
Rp431
(dp432
g22
(lp433
sg24
S'ovs-sw28'
p434
sg26
Nsg27
I28
sg28
Nsg29
Nsg30
Nsg31
(dp435
I0
g0
(g33
g2
Ntp436
Rp437
(dp438
g37
I10
sg38
I0
sg39
I1
sg40
I40
sg41
I10
sg42
I28
sbsI1
g0
(g33
g2
Ntp439
Rp440
(dp441
g37
I10
sg38
I1
sg39
I0
sg40
I37
sg41
I10
sg42
I28
sbssg49
(dp442
sbssI30
(dp443
g15
g0
(g18
g2
Ntp444
Rp445
(dp446
g22
(lp447
sg24
S'ovs-sw29'
p448
sg26
Nsg27
I29
sg28
Nsg29
Nsg30
Nsg31
(dp449
I0
g0
(g33
g2
Ntp450
Rp451
(dp452
g37
I10
sg38
I0
sg39
I1
sg40
I41
sg41
I10
sg42
I29
sbsI1
g0
(g33
g2
Ntp453
Rp454
(dp455
g37
I10
sg38
I1
sg39
I1
sg40
I37
sg41
I10
sg42
I29
sbssg49
(dp456
sbssI31
(dp457
g15
g0
(g18
g2
Ntp458
Rp459
(dp460
g22
(lp461
sg24
S'ovs-sw30'
p462
sg26
Nsg27
I30
sg28
Nsg29
Nsg30
Nsg31
(dp463
I0
g0
(g33
g2
Ntp464
Rp465
(dp466
g37
I10
sg38
I0
sg39
I1
sg40
I42
sg41
I10
sg42
I30
sbsI1
g0
(g33
g2
Ntp467
Rp468
(dp469
g37
I10
sg38
I1
sg39
I2
sg40
I37
sg41
I10
sg42
I30
sbssg49
(dp470
sbssI32
(dp471
g15
g0
(g18
g2
Ntp472
Rp473
(dp474
g22
(lp475
sg24
S'ovs-sw31'
p476
sg26
Nsg27
I31
sg28
Nsg29
Nsg30
Nsg31
(dp477
I0
g0
(g33
g2
Ntp478
Rp479
(dp480
g37
I10
sg38
I0
sg39
I2
sg40
I40
sg41
I10
sg42
I31
sbsI1
g0
(g33
g2
Ntp481
Rp482
(dp483
g37
I10
sg38
I1
sg39
I0
sg40
I38
sg41
I10
sg42
I31
sbssg49
(dp484
sbssI33
(dp485
g15
g0
(g18
g2
Ntp486
Rp487
(dp488
g22
(lp489
sg24
S'ovs-sw32'
p490
sg26
Nsg27
I32
sg28
Nsg29
Nsg30
Nsg31
(dp491
I0
g0
(g33
g2
Ntp492
Rp493
(dp494
g37
I10
sg38
I0
sg39
I2
sg40
I41
sg41
I10
sg42
I32
sbsI1
g0
(g33
g2
Ntp495
Rp496
(dp497
g37
I10
sg38
I1
sg39
I1
sg40
I38
sg41
I10
sg42
I32
sbssg49
(dp498
sbssI34
(dp499
g15
g0
(g18
g2
Ntp500
Rp501
(dp502
g22
(lp503
sg24
S'ovs-sw33'
p504
sg26
Nsg27
I33
sg28
Nsg29
Nsg30
Nsg31
(dp505
I0
g0
(g33
g2
Ntp506
Rp507
(dp508
g37
I10
sg38
I0
sg39
I2
sg40
I42
sg41
I10
sg42
I33
sbsI1
g0
(g33
g2
Ntp509
Rp510
(dp511
g37
I10
sg38
I1
sg39
I2
sg40
I38
sg41
I10
sg42
I33
sbssg49
(dp512
sbssI35
(dp513
g15
g0
(g18
g2
Ntp514
Rp515
(dp516
g22
(lp517
sg24
S'ovs-sw34'
p518
sg26
Nsg27
I34
sg28
Nsg29
Nsg30
Nsg31
(dp519
I0
g0
(g33
g2
Ntp520
Rp521
(dp522
g37
I10
sg38
I0
sg39
I3
sg40
I40
sg41
I10
sg42
I34
sbsI1
g0
(g33
g2
Ntp523
Rp524
(dp525
g37
I10
sg38
I1
sg39
I0
sg40
I39
sg41
I10
sg42
I34
sbssg49
(dp526
sbssI36
(dp527
g15
g0
(g18
g2
Ntp528
Rp529
(dp530
g22
(lp531
sg24
S'ovs-sw35'
p532
sg26
Nsg27
I35
sg28
Nsg29
Nsg30
Nsg31
(dp533
I0
g0
(g33
g2
Ntp534
Rp535
(dp536
g37
I10
sg38
I0
sg39
I3
sg40
I41
sg41
I10
sg42
I35
sbsI1
g0
(g33
g2
Ntp537
Rp538
(dp539
g37
I10
sg38
I1
sg39
I1
sg40
I39
sg41
I10
sg42
I35
sbssg49
(dp540
sbssI37
(dp541
g15
g0
(g18
g2
Ntp542
Rp543
(dp544
g22
(lp545
sg24
S'ovs-sw36'
p546
sg26
Nsg27
I36
sg28
Nsg29
Nsg30
Nsg31
(dp547
I0
g0
(g33
g2
Ntp548
Rp549
(dp550
g37
I10
sg38
I0
sg39
I3
sg40
I42
sg41
I10
sg42
I36
sbsI1
g0
(g33
g2
Ntp551
Rp552
(dp553
g37
I10
sg38
I1
sg39
I2
sg40
I39
sg41
I10
sg42
I36
sbssg49
(dp554
sbssI38
(dp555
g15
g0
(g18
g2
Ntp556
Rp557
(dp558
g22
(lp559
sg24
S'ovs-sw37'
p560
sg26
Nsg27
I37
sg28
Nsg29
Nsg30
Nsg31
(dp561
I0
g440
sI1
g454
sI2
g468
ssg49
(dp562
sbssI39
(dp563
g15
g0
(g18
g2
Ntp564
Rp565
(dp566
g22
(lp567
sg24
S'ovs-sw38'
p568
sg26
Nsg27
I38
sg28
Nsg29
Nsg30
Nsg31
(dp569
I0
g482
sI1
g496
sI2
g510
ssg49
(dp570
sbssI40
(dp571
g15
g0
(g18
g2
Ntp572
Rp573
(dp574
g22
(lp575
sg24
S'ovs-sw39'
p576
sg26
Nsg27
I39
sg28
Nsg29
Nsg30
Nsg31
(dp577
I0
g524
sI1
g538
sI2
g552
ssg49
(dp578
sbssI41
(dp579
g15
g0
(g18
g2
Ntp580
Rp581
(dp582
g22
(lp583
sg24
S'ovs-sw40'
p584
sg26
Nsg27
I40
sg28
Nsg29
Nsg30
Nsg31
(dp585
I0
g246
sI1
g437
sI2
g479
sI3
g521
ssg49
(dp586
sbssI42
(dp587
g15
g0
(g18
g2
Ntp588
Rp589
(dp590
g22
(lp591
sg24
S'ovs-sw41'
p592
sg26
Nsg27
I41
sg28
Nsg29
Nsg30
Nsg31
(dp593
I0
g249
sI1
g451
sI2
g493
sI3
g535
ssg49
(dp594
sbssI43
(dp595
g15
g0
(g18
g2
Ntp596
Rp597
(dp598
g22
(lp599
sg24
S'ovs-sw42'
p600
sg26
Nsg27
I42
sg28
Nsg29
Nsg30
Nsg31
(dp601
I0
g252
sI1
g465
sI2
g507
sI3
g549
ssg49
(dp602
sbssI44
(dp603
g15
g0
(g18
g2
Ntp604
Rp605
(dp606
g22
(lp607
sg24
S'ovs-sw43'
p608
sg26
Nsg27
I43
sg28
Nsg29
Nsg30
Nsg31
(dp609
I0
g62
sI1
g0
(g33
g2
Ntp610
Rp611
(dp612
g37
I10
sg38
I1
sg39
I1
sg40
I44
sg41
I10
sg42
I43
sbsI2
g0
(g33
g2
Ntp613
Rp614
(dp615
g37
I10
sg38
I2
sg39
I0
sg40
I45
sg41
I10
sg42
I43
sbssg49
(dp616
sbssI45
(dp617
g15
g0
(g18
g2
Ntp618
Rp619
(dp620
g22
(lp621
sg24
S'ovs-sw44'
p622
sg26
Nsg27
I44
sg28
Nsg29
Nsg30
Nsg31
(dp623
I0
g65
sI1
g611
sI2
g0
(g33
g2
Ntp624
Rp625
(dp626
g37
I10
sg38
I2
sg39
I0
sg40
I52
sg41
I10
sg42
I44
sbssg49
(dp627
sbssI46
(dp628
g15
g0
(g18
g2
Ntp629
Rp630
(dp631
g22
(lp632
sg24
S'ovs-sw45'
p633
sg26
Nsg27
I45
sg28
Nsg29
Nsg30
Nsg31
(dp634
I0
g614
sI1
g0
(g33
g2
Ntp635
Rp636
(dp637
g37
I10
sg38
I1
sg39
I0
sg40
I46
sg41
I10
sg42
I45
sbsI2
g0
(g33
g2
Ntp638
Rp639
(dp640
g37
I10
sg38
I2
sg39
I0
sg40
I47
sg41
I10
sg42
I45
sbssg49
(dp641
sbssI47
(dp642
g15
g0
(g18
g2
Ntp643
Rp644
(dp645
g22
(lp646
sg24
S'ovs-sw46'
p647
sg26
Nsg27
I46
sg28
Nsg29
Nsg30
Nsg31
(dp648
I0
g636
sI1
g0
(g33
g2
Ntp649
Rp650
(dp651
g37
I10
sg38
I1
sg39
I0
sg40
I48
sg41
I10
sg42
I46
sbssg49
(dp652
sbssI48
(dp653
g15
g0
(g18
g2
Ntp654
Rp655
(dp656
g22
(lp657
sg24
S'ovs-sw47'
p658
sg26
Nsg27
I47
sg28
Nsg29
Nsg30
Nsg31
(dp659
I0
g639
sI1
g0
(g33
g2
Ntp660
Rp661
(dp662
g37
I10
sg38
I1
sg39
I0
sg40
I49
sg41
I10
sg42
I47
sbssg49
(dp663
sbssI49
(dp664
g15
g0
(g18
g2
Ntp665
Rp666
(dp667
g22
(lp668
sg24
S'ovs-sw48'
p669
sg26
Nsg27
I48
sg28
Nsg29
Nsg30
Nsg31
(dp670
I0
g650
sI1
g0
(g33
g2
Ntp671
Rp672
(dp673
g37
I10
sg38
I1
sg39
I0
sg40
I50
sg41
I10
sg42
I48
sbssg49
(dp674
sbssI50
(dp675
g15
g0
(g18
g2
Ntp676
Rp677
(dp678
g22
(lp679
sg24
S'ovs-sw49'
p680
sg26
Nsg27
I49
sg28
Nsg29
Nsg30
Nsg31
(dp681
I0
g661
sI1
g0
(g33
g2
Ntp682
Rp683
(dp684
g37
I10
sg38
I1
sg39
I0
sg40
I51
sg41
I10
sg42
I49
sbssg49
(dp685
sbssI51
(dp686
g15
g0
(g18
g2
Ntp687
Rp688
(dp689
g22
(lp690
sg24
S'ovs-sw50'
p691
sg26
Nsg27
I50
sg28
Nsg29
Nsg30
Nsg31
(dp692
I0
g672
ssg49
(dp693
sbssI52
(dp694
g15
g0
(g18
g2
Ntp695
Rp696
(dp697
g22
(lp698
sg24
S'ovs-sw51'
p699
sg26
Nsg27
I51
sg28
Nsg29
Nsg30
Nsg31
(dp700
I0
g683
ssg49
(dp701
sbssI53
(dp702
g15
g0
(g18
g2
Ntp703
Rp704
(dp705
g22
(lp706
sg24
S'ovs-sw52'
p707
sg26
Nsg27
I52
sg28
Nsg29
Nsg30
Nsg31
(dp708
I0
g625
sI1
g0
(g33
g2
Ntp709
Rp710
(dp711
g37
I10
sg38
I1
sg39
I0
sg40
I53
sg41
I10
sg42
I52
sbsI2
g0
(g33
g2
Ntp712
Rp713
(dp714
g37
I10
sg38
I2
sg39
I0
sg40
I54
sg41
I10
sg42
I52
sbssg49
(dp715
sbssI54
(dp716
g15
g0
(g18
g2
Ntp717
Rp718
(dp719
g22
(lp720
sg24
S'ovs-sw53'
p721
sg26
Nsg27
I53
sg28
Nsg29
Nsg30
Nsg31
(dp722
I0
g710
sI1
g0
(g33
g2
Ntp723
Rp724
(dp725
g37
I10
sg38
I1
sg39
I0
sg40
I55
sg41
I10
sg42
I53
sbssg49
(dp726
sbssI55
(dp727
g15
g0
(g18
g2
Ntp728
Rp729
(dp730
g22
(lp731
sg24
S'ovs-sw54'
p732
sg26
Nsg27
I54
sg28
Nsg29
Nsg30
Nsg31
(dp733
I0
g713
sI1
g0
(g33
g2
Ntp734
Rp735
(dp736
g37
I10
sg38
I1
sg39
I0
sg40
I56
sg41
I10
sg42
I54
sbssg49
(dp737
sbssI56
(dp738
g15
g0
(g18
g2
Ntp739
Rp740
(dp741
g22
(lp742
sg24
S'ovs-sw55'
p743
sg26
Nsg27
I55
sg28
Nsg29
Nsg30
Nsg31
(dp744
I0
g724
sI1
g0
(g33
g2
Ntp745
Rp746
(dp747
g37
I10
sg38
I1
sg39
I0
sg40
I57
sg41
I10
sg42
I55
sbssg49
(dp748
sbssI57
(dp749
g15
g0
(g18
g2
Ntp750
Rp751
(dp752
g22
(lp753
sg24
S'ovs-sw56'
p754
sg26
Nsg27
I56
sg28
Nsg29
Nsg30
Nsg31
(dp755
I0
g735
sI1
g0
(g33
g2
Ntp756
Rp757
(dp758
g37
I10
sg38
I1
sg39
I0
sg40
I58
sg41
I10
sg42
I56
sbssg49
(dp759
sbssI58
(dp760
g15
g0
(g18
g2
Ntp761
Rp762
(dp763
g22
(lp764
sg24
S'ovs-sw57'
p765
sg26
Nsg27
I57
sg28
Nsg29
Nsg30
Nsg31
(dp766
I0
g746
ssg49
(dp767
sbssI59
(dp768
g15
g0
(g18
g2
Ntp769
Rp770
(dp771
g22
(lp772
sg24
S'ovs-sw58'
p773
sg26
Nsg27
I58
sg28
Nsg29
Nsg30
Nsg31
(dp774
I0
g757
ssg49
(dp775
sbssI60
(dp776
g15
g0
(g18
g2
Ntp777
Rp778
(dp779
g22
(lp780
sg24
S'ovs-sw59'
p781
sg26
Nsg27
I59
sg28
Nsg29
Nsg30
Nsg31
(dp782
I0
g79
sI1
g0
(g33
g2
Ntp783
Rp784
(dp785
g37
I10
sg38
I1
sg39
I1
sg40
I60
sg41
I1
sg42
I59
sbsI2
g0
(g33
g2
Ntp786
Rp787
(dp788
g37
I10
sg38
I2
sg39
I0
sg40
I62
sg41
I1
sg42
I59
sbssg49
(dp789
sbssI61
(dp790
g15
g0
(g18
g2
Ntp791
Rp792
(dp793
g22
(lp794
sg24
S'ovs-sw60'
p795
sg26
Nsg27
I60
sg28
Nsg29
Nsg30
Nsg31
(dp796
I0
g82
sI1
g784
sI2
g0
(g33
g2
Ntp797
Rp798
(dp799
g37
I10
sg38
I2
sg39
I0
sg40
I65
sg41
I1
sg42
I60
sbssg49
(dp800
sbssI62
(dp801
g15
g0
(g18
g2
Ntp802
Rp803
(dp804
g22
(lp805
sg24
S'ovs-sw62'
p806
sg26
Nsg27
I62
sg28
Nsg29
Nsg30
Nsg31
(dp807
I0
g787
sI1
g0
(g33
g2
Ntp808
Rp809
(dp810
g37
I10
sg38
I1
sg39
I0
sg40
I63
sg41
I1
sg42
I62
sbssg49
(dp811
sbssI63
(dp812
g15
g0
(g18
g2
Ntp813
Rp814
(dp815
g22
(lp816
sg24
S'ovs-sw63'
p817
sg26
Nsg27
I63
sg28
Nsg29
Nsg30
Nsg31
(dp818
I0
g809
ssg49
(dp819
sbssI64
(dp820
g15
g0
(g18
g2
Ntp821
Rp822
(dp823
g22
(lp824
sg24
S'ovs-sw64'
p825
sg26
Nsg27
I64
sg28
Nsg29
Nsg30
Nsg31
(dp826
I0
g0
(g33
g2
Ntp827
Rp828
(dp829
g37
I10
sg38
I0
sg39
I1
sg40
I65
sg41
I1
sg42
I64
sbssg49
(dp830
sbssI65
(dp831
g15
g0
(g18
g2
Ntp832
Rp833
(dp834
g22
(lp835
sg24
S'ovs-sw65'
p836
sg26
Nsg27
I65
sg28
Nsg29
Nsg30
Nsg31
(dp837
I0
g798
sI1
g828
sI2
g0
(g33
g2
Ntp838
Rp839
(dp840
g37
I10
sg38
I2
sg39
I0
sg40
I66
sg41
I1
sg42
I65
sbssg49
(dp841
sbssI66
(dp842
g15
g0
(g18
g2
Ntp843
Rp844
(dp845
g22
(lp846
sg24
S'ovs-sw66'
p847
sg26
Nsg27
I66
sg28
Nsg29
Nsg30
Nsg31
(dp848
I0
g839
ssg49
(dp849
sbssI67
(dp850
g15
g0
(g18
g2
Ntp851
Rp852
(dp853
g22
(lp854
sg24
S'ovs-sw67'
p855
sg26
Nsg27
I67
sg28
Nsg29
Nsg30
Nsg31
(dp856
I0
g96
sI1
g0
(g33
g2
Ntp857
Rp858
(dp859
g37
I10
sg38
I1
sg39
I1
sg40
I68
sg41
I1
sg42
I67
sbsI2
g0
(g33
g2
Ntp860
Rp861
(dp862
g37
I10
sg38
I2
sg39
I0
sg40
I71
sg41
I1
sg42
I67
sbssg49
(dp863
sbssI68
(dp864
g15
g0
(g18
g2
Ntp865
Rp866
(dp867
g22
(lp868
sg24
S'ovs-sw68'
p869
sg26
Nsg27
I68
sg28
Nsg29
Nsg30
Nsg31
(dp870
I0
g99
sI1
g858
sI2
g0
(g33
g2
Ntp871
Rp872
(dp873
g37
I10
sg38
I2
sg39
I0
sg40
I73
sg41
I1
sg42
I68
sbssg49
(dp874
sbssI69
(dp875
g15
g0
(g18
g2
Ntp876
Rp877
(dp878
g22
(lp879
sg24
S'ovs-sw69'
p880
sg26
Nsg27
I69
sg28
Nsg29
Nsg30
Nsg31
(dp881
I0
g0
(g33
g2
Ntp882
Rp883
(dp884
g37
I10
sg38
I0
sg39
I1
sg40
I71
sg41
I1
sg42
I69
sbssg49
(dp885
sbssI70
(dp886
g15
g0
(g18
g2
Ntp887
Rp888
(dp889
g22
(lp890
sg24
S'ovs-sw70'
p891
sg26
Nsg27
I70
sg28
Nsg29
Nsg30
Nsg31
(dp892
I0
g0
(g33
g2
Ntp893
Rp894
(dp895
g37
I10
sg38
I0
sg39
I2
sg40
I71
sg41
I1
sg42
I70
sbssg49
(dp896
sbssI71
(dp897
g15
g0
(g18
g2
Ntp898
Rp899
(dp900
g22
(lp901
sg24
S'ovs-sw71'
p902
sg26
Nsg27
I71
sg28
Nsg29
Nsg30
Nsg31
(dp903
I0
g861
sI1
g883
sI2
g894
sI3
g0
(g33
g2
Ntp904
Rp905
(dp906
g37
I10
sg38
I3
sg39
I0
sg40
I72
sg41
I1
sg42
I71
sbssg49
(dp907
sbssI72
(dp908
g15
g0
(g18
g2
Ntp909
Rp910
(dp911
g22
(lp912
sg24
S'ovs-sw72'
p913
sg26
Nsg27
I72
sg28
Nsg29
Nsg30
Nsg31
(dp914
I0
g905
ssg49
(dp915
sbssI73
(dp916
g15
g0
(g18
g2
Ntp917
Rp918
(dp919
g22
(lp920
sg24
S'ovs-sw73'
p921
sg26
Nsg27
I73
sg28
Nsg29
Nsg30
Nsg31
(dp922
I0
g872
sI1
g0
(g33
g2
Ntp923
Rp924
(dp925
g37
I10
sg38
I1
sg39
I0
sg40
I75
sg41
I1
sg42
I73
sbssg49
(dp926
sbssI74
(dp927
g15
g0
(g18
g2
Ntp928
Rp929
(dp930
g22
(lp931
sg24
S'ovs-sw75'
p932
sg26
Nsg27
I75
sg28
Nsg29
Nsg30
Nsg31
(dp933
I0
g924
ssg49
(dp934
sbssI75
(dp935
g15
g0
(g18
g2
Ntp936
Rp937
(dp938
g22
(lp939
sg24
S'ovs-sw76'
p940
sg26
Nsg27
I76
sg28
Nsg29
Nsg30
Nsg31
(dp941
I0
g113
sI1
g0
(g33
g2
Ntp942
Rp943
(dp944
g37
I10
sg38
I1
sg39
I1
sg40
I77
sg41
I1
sg42
I76
sbsI2
g0
(g33
g2
Ntp945
Rp946
(dp947
g37
I10
sg38
I2
sg39
I0
sg40
I79
sg41
I1
sg42
I76
sbssg49
(dp948
sbssI76
(dp949
g15
g0
(g18
g2
Ntp950
Rp951
(dp952
g22
(lp953
sg24
S'ovs-sw77'
p954
sg26
Nsg27
I77
sg28
Nsg29
Nsg30
Nsg31
(dp955
I0
g116
sI1
g943
sI2
g0
(g33
g2
Ntp956
Rp957
(dp958
g37
I10
sg38
I2
sg39
I0
sg40
I88
sg41
I1
sg42
I77
sbssg49
(dp959
sbssI77
(dp960
g15
g0
(g18
g2
Ntp961
Rp962
(dp963
g22
(lp964
sg24
S'ovs-sw79'
p965
sg26
Nsg27
I79
sg28
Nsg29
Nsg30
Nsg31
(dp966
I0
g946
sI1
g0
(g33
g2
Ntp967
Rp968
(dp969
g37
I10
sg38
I1
sg39
I0
sg40
I81
sg41
I1
sg42
I79
sbsI2
g0
(g33
g2
Ntp970
Rp971
(dp972
g37
I10
sg38
I2
sg39
I0
sg40
I82
sg41
I1
sg42
I79
sbsI3
g0
(g33
g2
Ntp973
Rp974
(dp975
g37
I10
sg38
I3
sg39
I0
sg40
I83
sg41
I1
sg42
I79
sbssg49
(dp976
sbssI78
(dp977
g15
g0
(g18
g2
Ntp978
Rp979
(dp980
g22
(lp981
sg24
S'ovs-sw81'
p982
sg26
Nsg27
I81
sg28
Nsg29
Nsg30
Nsg31
(dp983
I0
g968
ssg49
(dp984
sbssI79
(dp985
g15
g0
(g18
g2
Ntp986
Rp987
(dp988
g22
(lp989
sg24
S'ovs-sw82'
p990
sg26
Nsg27
I82
sg28
Nsg29
Nsg30
Nsg31
(dp991
I0
g971
ssg49
(dp992
sbssI80
(dp993
g15
g0
(g18
g2
Ntp994
Rp995
(dp996
g22
(lp997
sg24
S'ovs-sw83'
p998
sg26
Nsg27
I83
sg28
Nsg29
Nsg30
Nsg31
(dp999
I0
g974
ssg49
(dp1000
sbssI81
(dp1001
g15
g0
(g18
g2
Ntp1002
Rp1003
(dp1004
g22
(lp1005
sg24
S'ovs-sw84'
p1006
sg26
Nsg27
I84
sg28
Nsg29
Nsg30
Nsg31
(dp1007
I0
g0
(g33
g2
Ntp1008
Rp1009
(dp1010
g37
I10
sg38
I0
sg39
I1
sg40
I88
sg41
I1
sg42
I84
sbssg49
(dp1011
sbssI82
(dp1012
g15
g0
(g18
g2
Ntp1013
Rp1014
(dp1015
g22
(lp1016
sg24
S'ovs-sw87'
p1017
sg26
Nsg27
I87
sg28
Nsg29
Nsg30
Nsg31
(dp1018
I0
g0
(g33
g2
Ntp1019
Rp1020
(dp1021
g37
I10
sg38
I0
sg39
I2
sg40
I88
sg41
I1
sg42
I87
sbssg49
(dp1022
sbssI83
(dp1023
g15
g0
(g18
g2
Ntp1024
Rp1025
(dp1026
g22
(lp1027
sg24
S'ovs-sw88'
p1028
sg26
Nsg27
I88
sg28
Nsg29
Nsg30
Nsg31
(dp1029
I0
g957
sI1
g1009
sI2
g1020
ssg49
(dp1030
sbssI84
(dp1031
g15
g0
(g18
g2
Ntp1032
Rp1033
(dp1034
g22
(lp1035
sg24
S'ovs-sw89'
p1036
sg26
Nsg27
I89
sg28
Nsg29
Nsg30
Nsg31
(dp1037
I0
g133
sI1
g0
(g33
g2
Ntp1038
Rp1039
(dp1040
g37
I10
sg38
I1
sg39
I1
sg40
I90
sg41
I10
sg42
I89
sbsI2
g0
(g33
g2
Ntp1041
Rp1042
(dp1043
g37
I10
sg38
I2
sg39
I0
sg40
I91
sg41
I10
sg42
I89
sbsI3
g0
(g33
g2
Ntp1044
Rp1045
(dp1046
g37
I10
sg38
I3
sg39
I0
sg40
I92
sg41
I10
sg42
I89
sbsI4
g0
(g33
g2
Ntp1047
Rp1048
(dp1049
g37
I10
sg38
I4
sg39
I0
sg40
I93
sg41
I10
sg42
I89
sbsI5
g0
(g33
g2
Ntp1050
Rp1051
(dp1052
g37
I10
sg38
I5
sg39
I0
sg40
I94
sg41
I10
sg42
I89
sbssg49
(dp1053
sbssI85
(dp1054
g15
g0
(g18
g2
Ntp1055
Rp1056
(dp1057
g22
(lp1058
sg24
S'ovs-sw90'
p1059
sg26
Nsg27
I90
sg28
Nsg29
Nsg30
Nsg31
(dp1060
I0
g130
sI1
g1039
sI2
g0
(g33
g2
Ntp1061
Rp1062
(dp1063
g37
I10
sg38
I2
sg39
I0
sg40
I128
sg41
I10
sg42
I90
sbsI3
g0
(g33
g2
Ntp1064
Rp1065
(dp1066
g37
I10
sg38
I3
sg39
I0
sg40
I129
sg41
I10
sg42
I90
sbsI4
g0
(g33
g2
Ntp1067
Rp1068
(dp1069
g37
I10
sg38
I4
sg39
I0
sg40
I130
sg41
I10
sg42
I90
sbsI5
g0
(g33
g2
Ntp1070
Rp1071
(dp1072
g37
I10
sg38
I5
sg39
I0
sg40
I127
sg41
I10
sg42
I90
sbssg49
(dp1073
sbssI86
(dp1074
g15
g0
(g18
g2
Ntp1075
Rp1076
(dp1077
g22
(lp1078
sg24
S'ovs-sw91'
p1079
sg26
Nsg27
I91
sg28
Nsg29
Nsg30
Nsg31
(dp1080
I0
g1042
sI1
g0
(g33
g2
Ntp1081
Rp1082
(dp1083
g37
I10
sg38
I1
sg39
I0
sg40
I97
sg41
I10
sg42
I91
sbsI2
g0
(g33
g2
Ntp1084
Rp1085
(dp1086
g37
I10
sg38
I2
sg39
I0
sg40
I99
sg41
I10
sg42
I91
sbsI3
g0
(g33
g2
Ntp1087
Rp1088
(dp1089
g37
I10
sg38
I3
sg39
I0
sg40
I101
sg41
I10
sg42
I91
sbsI4
g0
(g33
g2
Ntp1090
Rp1091
(dp1092
g37
I10
sg38
I4
sg39
I0
sg40
I95
sg41
I10
sg42
I91
sbssg49
(dp1093
sbssI87
(dp1094
g15
g0
(g18
g2
Ntp1095
Rp1096
(dp1097
g22
(lp1098
sg24
S'ovs-sw92'
p1099
sg26
Nsg27
I92
sg28
Nsg29
Nsg30
Nsg31
(dp1100
I0
g1045
sI1
g0
(g33
g2
Ntp1101
Rp1102
(dp1103
g37
I10
sg38
I1
sg39
I1
sg40
I97
sg41
I10
sg42
I92
sbsI2
g0
(g33
g2
Ntp1104
Rp1105
(dp1106
g37
I10
sg38
I2
sg39
I1
sg40
I99
sg41
I10
sg42
I92
sbsI3
g0
(g33
g2
Ntp1107
Rp1108
(dp1109
g37
I10
sg38
I3
sg39
I1
sg40
I101
sg41
I10
sg42
I92
sbsI4
g0
(g33
g2
Ntp1110
Rp1111
(dp1112
g37
I10
sg38
I4
sg39
I1
sg40
I95
sg41
I10
sg42
I92
sbssg49
(dp1113
sbssI88
(dp1114
g15
g0
(g18
g2
Ntp1115
Rp1116
(dp1117
g22
(lp1118
sg24
S'ovs-sw93'
p1119
sg26
Nsg27
I93
sg28
Nsg29
Nsg30
Nsg31
(dp1120
I0
g1048
sI1
g0
(g33
g2
Ntp1121
Rp1122
(dp1123
g37
I10
sg38
I1
sg39
I0
sg40
I96
sg41
I10
sg42
I93
sbsI2
g0
(g33
g2
Ntp1124
Rp1125
(dp1126
g37
I10
sg38
I2
sg39
I0
sg40
I98
sg41
I10
sg42
I93
sbsI3
g0
(g33
g2
Ntp1127
Rp1128
(dp1129
g37
I10
sg38
I3
sg39
I0
sg40
I100
sg41
I10
sg42
I93
sbsI4
g0
(g33
g2
Ntp1130
Rp1131
(dp1132
g37
I10
sg38
I4
sg39
I0
sg40
I102
sg41
I10
sg42
I93
sbssg49
(dp1133
sbssI89
(dp1134
g15
g0
(g18
g2
Ntp1135
Rp1136
(dp1137
g22
(lp1138
sg24
S'ovs-sw94'
p1139
sg26
Nsg27
I94
sg28
Nsg29
Nsg30
Nsg31
(dp1140
I0
g1051
sI1
g0
(g33
g2
Ntp1141
Rp1142
(dp1143
g37
I10
sg38
I1
sg39
I1
sg40
I96
sg41
I10
sg42
I94
sbsI2
g0
(g33
g2
Ntp1144
Rp1145
(dp1146
g37
I10
sg38
I2
sg39
I1
sg40
I98
sg41
I10
sg42
I94
sbsI3
g0
(g33
g2
Ntp1147
Rp1148
(dp1149
g37
I10
sg38
I3
sg39
I1
sg40
I100
sg41
I10
sg42
I94
sbsI4
g0
(g33
g2
Ntp1150
Rp1151
(dp1152
g37
I10
sg38
I4
sg39
I1
sg40
I102
sg41
I10
sg42
I94
sbssg49
(dp1153
sbssI90
(dp1154
g15
g0
(g18
g2
Ntp1155
Rp1156
(dp1157
g22
(lp1158
sg24
S'ovs-sw95'
p1159
sg26
Nsg27
I95
sg28
Nsg29
Nsg30
Nsg31
(dp1160
I0
g1091
sI1
g1111
sI2
g0
(g33
g2
Ntp1161
Rp1162
(dp1163
g37
I10
sg38
I2
sg39
I0
sg40
I104
sg41
I10
sg42
I95
sbsI3
g0
(g33
g2
Ntp1164
Rp1165
(dp1166
g37
I10
sg38
I3
sg39
I0
sg40
I103
sg41
I10
sg42
I95
sbssg49
(dp1167
sbssI91
(dp1168
g15
g0
(g18
g2
Ntp1169
Rp1170
(dp1171
g22
(lp1172
sg24
S'ovs-sw96'
p1173
sg26
Nsg27
I96
sg28
Nsg29
Nsg30
Nsg31
(dp1174
I0
g1122
sI1
g1142
sI2
g0
(g33
g2
Ntp1175
Rp1176
(dp1177
g37
I10
sg38
I2
sg39
I1
sg40
I104
sg41
I10
sg42
I96
sbsI3
g0
(g33
g2
Ntp1178
Rp1179
(dp1180
g37
I10
sg38
I3
sg39
I1
sg40
I103
sg41
I10
sg42
I96
sbssg49
(dp1181
sbssI92
(dp1182
g15
g0
(g18
g2
Ntp1183
Rp1184
(dp1185
g22
(lp1186
sg24
S'ovs-sw97'
p1187
sg26
Nsg27
I97
sg28
Nsg29
Nsg30
Nsg31
(dp1188
I0
g1082
sI1
g1102
sI2
g0
(g33
g2
Ntp1189
Rp1190
(dp1191
g37
I10
sg38
I2
sg39
I0
sg40
I105
sg41
I10
sg42
I97
sbsI3
g0
(g33
g2
Ntp1192
Rp1193
(dp1194
g37
I10
sg38
I3
sg39
I0
sg40
I106
sg41
I10
sg42
I97
sbssg49
(dp1195
sbssI93
(dp1196
g15
g0
(g18
g2
Ntp1197
Rp1198
(dp1199
g22
(lp1200
sg24
S'ovs-sw98'
p1201
sg26
Nsg27
I98
sg28
Nsg29
Nsg30
Nsg31
(dp1202
I0
g1125
sI1
g1145
sI2
g0
(g33
g2
Ntp1203
Rp1204
(dp1205
g37
I10
sg38
I2
sg39
I1
sg40
I105
sg41
I10
sg42
I98
sbsI3
g0
(g33
g2
Ntp1206
Rp1207
(dp1208
g37
I10
sg38
I3
sg39
I1
sg40
I106
sg41
I10
sg42
I98
sbssg49
(dp1209
sbssI94
(dp1210
g15
g0
(g18
g2
Ntp1211
Rp1212
(dp1213
g22
(lp1214
sg24
S'ovs-sw99'
p1215
sg26
Nsg27
I99
sg28
Nsg29
Nsg30
Nsg31
(dp1216
I0
g1085
sI1
g1105
sI2
g0
(g33
g2
Ntp1217
Rp1218
(dp1219
g37
I10
sg38
I2
sg39
I0
sg40
I107
sg41
I10
sg42
I99
sbsI3
g0
(g33
g2
Ntp1220
Rp1221
(dp1222
g37
I10
sg38
I3
sg39
I0
sg40
I108
sg41
I10
sg42
I99
sbssg49
(dp1223
sbssI95
(dp1224
g15
g0
(g18
g2
Ntp1225
Rp1226
(dp1227
g22
(lp1228
sg24
S'ovs-sw100'
p1229
sg26
Nsg27
I100
sg28
Nsg29
Nsg30
Nsg31
(dp1230
I0
g1128
sI1
g1148
sI2
g0
(g33
g2
Ntp1231
Rp1232
(dp1233
g37
I10
sg38
I2
sg39
I1
sg40
I107
sg41
I10
sg42
I100
sbsI3
g0
(g33
g2
Ntp1234
Rp1235
(dp1236
g37
I10
sg38
I3
sg39
I1
sg40
I108
sg41
I10
sg42
I100
sbssg49
(dp1237
sbssI96
(dp1238
g15
g0
(g18
g2
Ntp1239
Rp1240
(dp1241
g22
(lp1242
sg24
S'ovs-sw101'
p1243
sg26
Nsg27
I101
sg28
Nsg29
Nsg30
Nsg31
(dp1244
I0
g1088
sI1
g1108
sI2
g0
(g33
g2
Ntp1245
Rp1246
(dp1247
g37
I10
sg38
I2
sg39
I0
sg40
I109
sg41
I10
sg42
I101
sbsI3
g0
(g33
g2
Ntp1248
Rp1249
(dp1250
g37
I10
sg38
I3
sg39
I0
sg40
I110
sg41
I10
sg42
I101
sbssg49
(dp1251
sbssI97
(dp1252
g15
g0
(g18
g2
Ntp1253
Rp1254
(dp1255
g22
(lp1256
sg24
S'ovs-sw102'
p1257
sg26
Nsg27
I102
sg28
Nsg29
Nsg30
Nsg31
(dp1258
I0
g1131
sI1
g1151
sI2
g0
(g33
g2
Ntp1259
Rp1260
(dp1261
g37
I10
sg38
I2
sg39
I1
sg40
I110
sg41
I10
sg42
I102
sbsI3
g0
(g33
g2
Ntp1262
Rp1263
(dp1264
g37
I10
sg38
I3
sg39
I1
sg40
I109
sg41
I10
sg42
I102
sbssg49
(dp1265
sbssI98
(dp1266
g15
g0
(g18
g2
Ntp1267
Rp1268
(dp1269
g22
(lp1270
sg24
S'ovs-sw103'
p1271
sg26
Nsg27
I103
sg28
Nsg29
Nsg30
Nsg31
(dp1272
I0
g1165
sI1
g1179
sI2
g0
(g33
g2
Ntp1273
Rp1274
(dp1275
g37
I10
sg38
I2
sg39
I0
sg40
I112
sg41
I10
sg42
I103
sbsI3
g0
(g33
g2
Ntp1276
Rp1277
(dp1278
g37
I10
sg38
I3
sg39
I0
sg40
I111
sg41
I10
sg42
I103
sbssg49
(dp1279
sbssI99
(dp1280
g15
g0
(g18
g2
Ntp1281
Rp1282
(dp1283
g22
(lp1284
sg24
S'ovs-sw104'
p1285
sg26
Nsg27
I104
sg28
Nsg29
Nsg30
Nsg31
(dp1286
I0
g1162
sI1
g1176
sI2
g0
(g33
g2
Ntp1287
Rp1288
(dp1289
g37
I10
sg38
I2
sg39
I0
sg40
I113
sg41
I10
sg42
I104
sbsI3
g0
(g33
g2
Ntp1290
Rp1291
(dp1292
g37
I10
sg38
I3
sg39
I0
sg40
I114
sg41
I10
sg42
I104
sbssg49
(dp1293
sbssI100
(dp1294
g15
g0
(g18
g2
Ntp1295
Rp1296
(dp1297
g22
(lp1298
sg24
S'ovs-sw105'
p1299
sg26
Nsg27
I105
sg28
Nsg29
Nsg30
Nsg31
(dp1300
I0
g1190
sI1
g1204
sI2
g0
(g33
g2
Ntp1301
Rp1302
(dp1303
g37
I10
sg38
I2
sg39
I0
sg40
I115
sg41
I10
sg42
I105
sbsI3
g0
(g33
g2
Ntp1304
Rp1305
(dp1306
g37
I10
sg38
I3
sg39
I0
sg40
I116
sg41
I10
sg42
I105
sbssg49
(dp1307
sbssI101
(dp1308
g15
g0
(g18
g2
Ntp1309
Rp1310
(dp1311
g22
(lp1312
sg24
S'ovs-sw106'
p1313
sg26
Nsg27
I106
sg28
Nsg29
Nsg30
Nsg31
(dp1314
I0
g1193
sI1
g1207
sI2
g0
(g33
g2
Ntp1315
Rp1316
(dp1317
g37
I10
sg38
I2
sg39
I0
sg40
I117
sg41
I10
sg42
I106
sbsI3
g0
(g33
g2
Ntp1318
Rp1319
(dp1320
g37
I10
sg38
I3
sg39
I0
sg40
I118
sg41
I10
sg42
I106
sbssg49
(dp1321
sbssI102
(dp1322
g15
g0
(g18
g2
Ntp1323
Rp1324
(dp1325
g22
(lp1326
sg24
S'ovs-sw107'
p1327
sg26
Nsg27
I107
sg28
Nsg29
Nsg30
Nsg31
(dp1328
I0
g1218
sI1
g1232
sI2
g0
(g33
g2
Ntp1329
Rp1330
(dp1331
g37
I10
sg38
I2
sg39
I0
sg40
I120
sg41
I10
sg42
I107
sbsI3
g0
(g33
g2
Ntp1332
Rp1333
(dp1334
g37
I10
sg38
I3
sg39
I0
sg40
I119
sg41
I10
sg42
I107
sbssg49
(dp1335
sbssI103
(dp1336
g15
g0
(g18
g2
Ntp1337
Rp1338
(dp1339
g22
(lp1340
sg24
S'ovs-sw108'
p1341
sg26
Nsg27
I108
sg28
Nsg29
Nsg30
Nsg31
(dp1342
I0
g1221
sI1
g1235
sI2
g0
(g33
g2
Ntp1343
Rp1344
(dp1345
g37
I10
sg38
I2
sg39
I0
sg40
I121
sg41
I10
sg42
I108
sbsI3
g0
(g33
g2
Ntp1346
Rp1347
(dp1348
g37
I10
sg38
I3
sg39
I0
sg40
I122
sg41
I10
sg42
I108
sbssg49
(dp1349
sbssI104
(dp1350
g15
g0
(g18
g2
Ntp1351
Rp1352
(dp1353
g22
(lp1354
sg24
S'ovs-sw109'
p1355
sg26
Nsg27
I109
sg28
Nsg29
Nsg30
Nsg31
(dp1356
I0
g1246
sI1
g1263
sI2
g0
(g33
g2
Ntp1357
Rp1358
(dp1359
g37
I10
sg38
I2
sg39
I0
sg40
I123
sg41
I10
sg42
I109
sbsI3
g0
(g33
g2
Ntp1360
Rp1361
(dp1362
g37
I10
sg38
I3
sg39
I0
sg40
I124
sg41
I10
sg42
I109
sbssg49
(dp1363
sbssI105
(dp1364
g15
g0
(g18
g2
Ntp1365
Rp1366
(dp1367
g22
(lp1368
sg24
S'ovs-sw110'
p1369
sg26
Nsg27
I110
sg28
Nsg29
Nsg30
Nsg31
(dp1370
I0
g1249
sI1
g1260
sI2
g0
(g33
g2
Ntp1371
Rp1372
(dp1373
g37
I10
sg38
I2
sg39
I0
sg40
I126
sg41
I10
sg42
I110
sbsI3
g0
(g33
g2
Ntp1374
Rp1375
(dp1376
g37
I10
sg38
I3
sg39
I0
sg40
I125
sg41
I10
sg42
I110
sbssg49
(dp1377
sbssI106
(dp1378
g15
g0
(g18
g2
Ntp1379
Rp1380
(dp1381
g22
(lp1382
sg24
S'ovs-sw111'
p1383
sg26
Nsg27
I111
sg28
Nsg29
Nsg30
Nsg31
(dp1384
I0
g1277
ssg49
(dp1385
sbssI107
(dp1386
g15
g0
(g18
g2
Ntp1387
Rp1388
(dp1389
g22
(lp1390
sg24
S'ovs-sw112'
p1391
sg26
Nsg27
I112
sg28
Nsg29
Nsg30
Nsg31
(dp1392
I0
g1274
ssg49
(dp1393
sbssI108
(dp1394
g15
g0
(g18
g2
Ntp1395
Rp1396
(dp1397
g22
(lp1398
sg24
S'ovs-sw113'
p1399
sg26
Nsg27
I113
sg28
Nsg29
Nsg30
Nsg31
(dp1400
I0
g1288
ssg49
(dp1401
sbssI109
(dp1402
g15
g0
(g18
g2
Ntp1403
Rp1404
(dp1405
g22
(lp1406
sg24
S'ovs-sw114'
p1407
sg26
Nsg27
I114
sg28
Nsg29
Nsg30
Nsg31
(dp1408
I0
g1291
ssg49
(dp1409
sbssI110
(dp1410
g15
g0
(g18
g2
Ntp1411
Rp1412
(dp1413
g22
(lp1414
sg24
S'ovs-sw115'
p1415
sg26
Nsg27
I115
sg28
Nsg29
Nsg30
Nsg31
(dp1416
I0
g1302
ssg49
(dp1417
sbssI111
(dp1418
g15
g0
(g18
g2
Ntp1419
Rp1420
(dp1421
g22
(lp1422
sg24
S'ovs-sw116'
p1423
sg26
Nsg27
I116
sg28
Nsg29
Nsg30
Nsg31
(dp1424
I0
g1305
ssg49
(dp1425
sbssI112
(dp1426
g15
g0
(g18
g2
Ntp1427
Rp1428
(dp1429
g22
(lp1430
sg24
S'ovs-sw117'
p1431
sg26
Nsg27
I117
sg28
Nsg29
Nsg30
Nsg31
(dp1432
I0
g1316
ssg49
(dp1433
sbssI113
(dp1434
g15
g0
(g18
g2
Ntp1435
Rp1436
(dp1437
g22
(lp1438
sg24
S'ovs-sw118'
p1439
sg26
Nsg27
I118
sg28
Nsg29
Nsg30
Nsg31
(dp1440
I0
g1319
ssg49
(dp1441
sbssI114
(dp1442
g15
g0
(g18
g2
Ntp1443
Rp1444
(dp1445
g22
(lp1446
sg24
S'ovs-sw119'
p1447
sg26
Nsg27
I119
sg28
Nsg29
Nsg30
Nsg31
(dp1448
I0
g1333
ssg49
(dp1449
sbssI115
(dp1450
g15
g0
(g18
g2
Ntp1451
Rp1452
(dp1453
g22
(lp1454
sg24
S'ovs-sw120'
p1455
sg26
Nsg27
I120
sg28
Nsg29
Nsg30
Nsg31
(dp1456
I0
g1330
ssg49
(dp1457
sbssI116
(dp1458
g15
g0
(g18
g2
Ntp1459
Rp1460
(dp1461
g22
(lp1462
sg24
S'ovs-sw121'
p1463
sg26
Nsg27
I121
sg28
Nsg29
Nsg30
Nsg31
(dp1464
I0
g1344
ssg49
(dp1465
sbssI117
(dp1466
g15
g0
(g18
g2
Ntp1467
Rp1468
(dp1469
g22
(lp1470
sg24
S'ovs-sw122'
p1471
sg26
Nsg27
I122
sg28
Nsg29
Nsg30
Nsg31
(dp1472
I0
g1347
ssg49
(dp1473
sbssI118
(dp1474
g15
g0
(g18
g2
Ntp1475
Rp1476
(dp1477
g22
(lp1478
sg24
S'ovs-sw123'
p1479
sg26
Nsg27
I123
sg28
Nsg29
Nsg30
Nsg31
(dp1480
I0
g1358
ssg49
(dp1481
sbssI119
(dp1482
g15
g0
(g18
g2
Ntp1483
Rp1484
(dp1485
g22
(lp1486
sg24
S'ovs-sw124'
p1487
sg26
Nsg27
I124
sg28
Nsg29
Nsg30
Nsg31
(dp1488
I0
g1361
ssg49
(dp1489
sbssI120
(dp1490
g15
g0
(g18
g2
Ntp1491
Rp1492
(dp1493
g22
(lp1494
sg24
S'ovs-sw125'
p1495
sg26
Nsg27
I125
sg28
Nsg29
Nsg30
Nsg31
(dp1496
I0
g1375
ssg49
(dp1497
sbssI121
(dp1498
g15
g0
(g18
g2
Ntp1499
Rp1500
(dp1501
g22
(lp1502
sg24
S'ovs-sw126'
p1503
sg26
Nsg27
I126
sg28
Nsg29
Nsg30
Nsg31
(dp1504
I0
g1372
ssg49
(dp1505
sbssI122
(dp1506
g15
g0
(g18
g2
Ntp1507
Rp1508
(dp1509
g22
(lp1510
sg24
S'ovs-sw127'
p1511
sg26
Nsg27
I127
sg28
Nsg29
Nsg30
Nsg31
(dp1512
I0
g1071
sI1
g0
(g33
g2
Ntp1513
Rp1514
(dp1515
g37
I10
sg38
I1
sg39
I0
sg40
I137
sg41
I10
sg42
I127
sbsI2
g0
(g33
g2
Ntp1516
Rp1517
(dp1518
g37
I10
sg38
I2
sg39
I0
sg40
I131
sg41
I10
sg42
I127
sbsI3
g0
(g33
g2
Ntp1519
Rp1520
(dp1521
g37
I10
sg38
I3
sg39
I0
sg40
I133
sg41
I10
sg42
I127
sbsI4
g0
(g33
g2
Ntp1522
Rp1523
(dp1524
g37
I10
sg38
I4
sg39
I0
sg40
I135
sg41
I10
sg42
I127
sbssg49
(dp1525
sbssI123
(dp1526
g15
g0
(g18
g2
Ntp1527
Rp1528
(dp1529
g22
(lp1530
sg24
S'ovs-sw128'
p1531
sg26
Nsg27
I128
sg28
Nsg29
Nsg30
Nsg31
(dp1532
I0
g1062
sI1
g0
(g33
g2
Ntp1533
Rp1534
(dp1535
g37
I10
sg38
I1
sg39
I1
sg40
I137
sg41
I10
sg42
I128
sbsI2
g0
(g33
g2
Ntp1536
Rp1537
(dp1538
g37
I10
sg38
I2
sg39
I1
sg40
I131
sg41
I10
sg42
I128
sbsI3
g0
(g33
g2
Ntp1539
Rp1540
(dp1541
g37
I10
sg38
I3
sg39
I1
sg40
I133
sg41
I10
sg42
I128
sbsI4
g0
(g33
g2
Ntp1542
Rp1543
(dp1544
g37
I10
sg38
I4
sg39
I1
sg40
I135
sg41
I10
sg42
I128
sbssg49
(dp1545
sbssI124
(dp1546
g15
g0
(g18
g2
Ntp1547
Rp1548
(dp1549
g22
(lp1550
sg24
S'ovs-sw129'
p1551
sg26
Nsg27
I129
sg28
Nsg29
Nsg30
Nsg31
(dp1552
I0
g1065
sI1
g0
(g33
g2
Ntp1553
Rp1554
(dp1555
g37
I10
sg38
I1
sg39
I0
sg40
I136
sg41
I10
sg42
I129
sbsI2
g0
(g33
g2
Ntp1556
Rp1557
(dp1558
g37
I10
sg38
I2
sg39
I0
sg40
I138
sg41
I10
sg42
I129
sbsI3
g0
(g33
g2
Ntp1559
Rp1560
(dp1561
g37
I10
sg38
I3
sg39
I0
sg40
I132
sg41
I10
sg42
I129
sbsI4
g0
(g33
g2
Ntp1562
Rp1563
(dp1564
g37
I10
sg38
I4
sg39
I0
sg40
I134
sg41
I10
sg42
I129
sbssg49
(dp1565
sbssI125
(dp1566
g15
g0
(g18
g2
Ntp1567
Rp1568
(dp1569
g22
(lp1570
sg24
S'ovs-sw130'
p1571
sg26
Nsg27
I130
sg28
Nsg29
Nsg30
Nsg31
(dp1572
I0
g1068
sI1
g0
(g33
g2
Ntp1573
Rp1574
(dp1575
g37
I10
sg38
I1
sg39
I1
sg40
I136
sg41
I10
sg42
I130
sbsI2
g0
(g33
g2
Ntp1576
Rp1577
(dp1578
g37
I10
sg38
I2
sg39
I1
sg40
I138
sg41
I10
sg42
I130
sbsI3
g0
(g33
g2
Ntp1579
Rp1580
(dp1581
g37
I10
sg38
I3
sg39
I1
sg40
I132
sg41
I10
sg42
I130
sbsI4
g0
(g33
g2
Ntp1582
Rp1583
(dp1584
g37
I10
sg38
I4
sg39
I1
sg40
I134
sg41
I10
sg42
I130
sbssg49
(dp1585
sbssI126
(dp1586
g15
g0
(g18
g2
Ntp1587
Rp1588
(dp1589
g22
(lp1590
sg24
S'ovs-sw131'
p1591
sg26
Nsg27
I131
sg28
Nsg29
Nsg30
Nsg31
(dp1592
I0
g1517
sI1
g1537
sI2
g0
(g33
g2
Ntp1593
Rp1594
(dp1595
g37
I10
sg38
I2
sg39
I0
sg40
I139
sg41
I10
sg42
I131
sbsI3
g0
(g33
g2
Ntp1596
Rp1597
(dp1598
g37
I10
sg38
I3
sg39
I0
sg40
I140
sg41
I10
sg42
I131
sbssg49
(dp1599
sbssI127
(dp1600
g15
g0
(g18
g2
Ntp1601
Rp1602
(dp1603
g22
(lp1604
sg24
S'ovs-sw132'
p1605
sg26
Nsg27
I132
sg28
Nsg29
Nsg30
Nsg31
(dp1606
I0
g1560
sI1
g1580
sI2
g0
(g33
g2
Ntp1607
Rp1608
(dp1609
g37
I10
sg38
I2
sg39
I1
sg40
I139
sg41
I10
sg42
I132
sbsI3
g0
(g33
g2
Ntp1610
Rp1611
(dp1612
g37
I10
sg38
I3
sg39
I1
sg40
I140
sg41
I10
sg42
I132
sbssg49
(dp1613
sbssI128
(dp1614
g15
g0
(g18
g2
Ntp1615
Rp1616
(dp1617
g22
(lp1618
sg24
S'ovs-sw133'
p1619
sg26
Nsg27
I133
sg28
Nsg29
Nsg30
Nsg31
(dp1620
I0
g1520
sI1
g1540
sI2
g0
(g33
g2
Ntp1621
Rp1622
(dp1623
g37
I10
sg38
I2
sg39
I0
sg40
I141
sg41
I10
sg42
I133
sbsI3
g0
(g33
g2
Ntp1624
Rp1625
(dp1626
g37
I10
sg38
I3
sg39
I0
sg40
I142
sg41
I10
sg42
I133
sbssg49
(dp1627
sbssI129
(dp1628
g15
g0
(g18
g2
Ntp1629
Rp1630
(dp1631
g22
(lp1632
sg24
S'ovs-sw134'
p1633
sg26
Nsg27
I134
sg28
Nsg29
Nsg30
Nsg31
(dp1634
I0
g1563
sI1
g1583
sI2
g0
(g33
g2
Ntp1635
Rp1636
(dp1637
g37
I10
sg38
I2
sg39
I1
sg40
I141
sg41
I10
sg42
I134
sbsI3
g0
(g33
g2
Ntp1638
Rp1639
(dp1640
g37
I10
sg38
I3
sg39
I1
sg40
I142
sg41
I10
sg42
I134
sbssg49
(dp1641
sbssI130
(dp1642
g15
g0
(g18
g2
Ntp1643
Rp1644
(dp1645
g22
(lp1646
sg24
S'ovs-sw135'
p1647
sg26
Nsg27
I135
sg28
Nsg29
Nsg30
Nsg31
(dp1648
I0
g1523
sI1
g1543
sI2
g0
(g33
g2
Ntp1649
Rp1650
(dp1651
g37
I10
sg38
I2
sg39
I0
sg40
I144
sg41
I10
sg42
I135
sbsI3
g0
(g33
g2
Ntp1652
Rp1653
(dp1654
g37
I10
sg38
I3
sg39
I0
sg40
I143
sg41
I10
sg42
I135
sbssg49
(dp1655
sbssI131
(dp1656
g15
g0
(g18
g2
Ntp1657
Rp1658
(dp1659
g22
(lp1660
sg24
S'ovs-sw136'
p1661
sg26
Nsg27
I136
sg28
Nsg29
Nsg30
Nsg31
(dp1662
I0
g1554
sI1
g1574
sI2
g0
(g33
g2
Ntp1663
Rp1664
(dp1665
g37
I10
sg38
I2
sg39
I1
sg40
I144
sg41
I10
sg42
I136
sbsI3
g0
(g33
g2
Ntp1666
Rp1667
(dp1668
g37
I10
sg38
I3
sg39
I1
sg40
I143
sg41
I10
sg42
I136
sbssg49
(dp1669
sbssI132
(dp1670
g15
g0
(g18
g2
Ntp1671
Rp1672
(dp1673
g22
(lp1674
sg24
S'ovs-sw137'
p1675
sg26
Nsg27
I137
sg28
Nsg29
Nsg30
Nsg31
(dp1676
I0
g1514
sI1
g1534
sI2
g0
(g33
g2
Ntp1677
Rp1678
(dp1679
g37
I10
sg38
I2
sg39
I0
sg40
I145
sg41
I10
sg42
I137
sbsI3
g0
(g33
g2
Ntp1680
Rp1681
(dp1682
g37
I10
sg38
I3
sg39
I0
sg40
I146
sg41
I10
sg42
I137
sbssg49
(dp1683
sbssI133
(dp1684
g15
g0
(g18
g2
Ntp1685
Rp1686
(dp1687
g22
(lp1688
sg24
S'ovs-sw138'
p1689
sg26
Nsg27
I138
sg28
Nsg29
Nsg30
Nsg31
(dp1690
I0
g1557
sI1
g1577
sI2
g0
(g33
g2
Ntp1691
Rp1692
(dp1693
g37
I10
sg38
I2
sg39
I1
sg40
I146
sg41
I10
sg42
I138
sbsI3
g0
(g33
g2
Ntp1694
Rp1695
(dp1696
g37
I10
sg38
I3
sg39
I1
sg40
I145
sg41
I10
sg42
I138
sbssg49
(dp1697
sbssI134
(dp1698
g15
g0
(g18
g2
Ntp1699
Rp1700
(dp1701
g22
(lp1702
sg24
S'ovs-sw139'
p1703
sg26
Nsg27
I139
sg28
Nsg29
Nsg30
Nsg31
(dp1704
I0
g1594
sI1
g1608
sI2
g0
(g33
g2
Ntp1705
Rp1706
(dp1707
g37
I10
sg38
I2
sg39
I0
sg40
I148
sg41
I10
sg42
I139
sbsI3
g0
(g33
g2
Ntp1708
Rp1709
(dp1710
g37
I10
sg38
I3
sg39
I0
sg40
I147
sg41
I10
sg42
I139
sbssg49
(dp1711
sbssI135
(dp1712
g15
g0
(g18
g2
Ntp1713
Rp1714
(dp1715
g22
(lp1716
sg24
S'ovs-sw140'
p1717
sg26
Nsg27
I140
sg28
Nsg29
Nsg30
Nsg31
(dp1718
I0
g1597
sI1
g1611
sI2
g0
(g33
g2
Ntp1719
Rp1720
(dp1721
g37
I10
sg38
I2
sg39
I0
sg40
I149
sg41
I10
sg42
I140
sbsI3
g0
(g33
g2
Ntp1722
Rp1723
(dp1724
g37
I10
sg38
I3
sg39
I0
sg40
I150
sg41
I10
sg42
I140
sbssg49
(dp1725
sbssI136
(dp1726
g15
g0
(g18
g2
Ntp1727
Rp1728
(dp1729
g22
(lp1730
sg24
S'ovs-sw141'
p1731
sg26
Nsg27
I141
sg28
Nsg29
Nsg30
Nsg31
(dp1732
I0
g1622
sI1
g1636
sI2
g0
(g33
g2
Ntp1733
Rp1734
(dp1735
g37
I10
sg38
I2
sg39
I0
sg40
I152
sg41
I10
sg42
I141
sbsI3
g0
(g33
g2
Ntp1736
Rp1737
(dp1738
g37
I10
sg38
I3
sg39
I0
sg40
I151
sg41
I10
sg42
I141
sbssg49
(dp1739
sbssI137
(dp1740
g15
g0
(g18
g2
Ntp1741
Rp1742
(dp1743
g22
(lp1744
sg24
S'ovs-sw142'
p1745
sg26
Nsg27
I142
sg28
Nsg29
Nsg30
Nsg31
(dp1746
I0
g1625
sI1
g1639
sI2
g0
(g33
g2
Ntp1747
Rp1748
(dp1749
g37
I10
sg38
I2
sg39
I0
sg40
I153
sg41
I10
sg42
I142
sbsI3
g0
(g33
g2
Ntp1750
Rp1751
(dp1752
g37
I10
sg38
I3
sg39
I0
sg40
I154
sg41
I10
sg42
I142
sbssg49
(dp1753
sbssI138
(dp1754
g15
g0
(g18
g2
Ntp1755
Rp1756
(dp1757
g22
(lp1758
sg24
S'ovs-sw143'
p1759
sg26
Nsg27
I143
sg28
Nsg29
Nsg30
Nsg31
(dp1760
I0
g1653
sI1
g1667
sI2
g0
(g33
g2
Ntp1761
Rp1762
(dp1763
g37
I10
sg38
I2
sg39
I0
sg40
I155
sg41
I10
sg42
I143
sbsI3
g0
(g33
g2
Ntp1764
Rp1765
(dp1766
g37
I10
sg38
I3
sg39
I0
sg40
I156
sg41
I10
sg42
I143
sbssg49
(dp1767
sbssI139
(dp1768
g15
g0
(g18
g2
Ntp1769
Rp1770
(dp1771
g22
(lp1772
sg24
S'ovs-sw144'
p1773
sg26
Nsg27
I144
sg28
Nsg29
Nsg30
Nsg31
(dp1774
I0
g1650
sI1
g1664
sI2
g0
(g33
g2
Ntp1775
Rp1776
(dp1777
g37
I10
sg38
I2
sg39
I0
sg40
I157
sg41
I10
sg42
I144
sbsI3
g0
(g33
g2
Ntp1778
Rp1779
(dp1780
g37
I10
sg38
I3
sg39
I0
sg40
I158
sg41
I10
sg42
I144
sbssg49
(dp1781
sbssI140
(dp1782
g15
g0
(g18
g2
Ntp1783
Rp1784
(dp1785
g22
(lp1786
sg24
S'ovs-sw145'
p1787
sg26
Nsg27
I145
sg28
Nsg29
Nsg30
Nsg31
(dp1788
I0
g1678
sI1
g1695
sI2
g0
(g33
g2
Ntp1789
Rp1790
(dp1791
g37
I10
sg38
I2
sg39
I0
sg40
I160
sg41
I10
sg42
I145
sbsI3
g0
(g33
g2
Ntp1792
Rp1793
(dp1794
g37
I10
sg38
I3
sg39
I0
sg40
I159
sg41
I10
sg42
I145
sbssg49
(dp1795
sbssI141
(dp1796
g15
g0
(g18
g2
Ntp1797
Rp1798
(dp1799
g22
(lp1800
sg24
S'ovs-sw146'
p1801
sg26
Nsg27
I146
sg28
Nsg29
Nsg30
Nsg31
(dp1802
I0
g1681
sI1
g1692
sI2
g0
(g33
g2
Ntp1803
Rp1804
(dp1805
g37
I10
sg38
I2
sg39
I0
sg40
I162
sg41
I10
sg42
I146
sbsI3
g0
(g33
g2
Ntp1806
Rp1807
(dp1808
g37
I10
sg38
I3
sg39
I0
sg40
I161
sg41
I10
sg42
I146
sbssg49
(dp1809
sbssI142
(dp1810
g15
g0
(g18
g2
Ntp1811
Rp1812
(dp1813
g22
(lp1814
sg24
S'ovs-sw147'
p1815
sg26
Nsg27
I147
sg28
Nsg29
Nsg30
Nsg31
(dp1816
I0
g1709
ssg49
(dp1817
sbssI143
(dp1818
g15
g0
(g18
g2
Ntp1819
Rp1820
(dp1821
g22
(lp1822
sg24
S'ovs-sw148'
p1823
sg26
Nsg27
I148
sg28
Nsg29
Nsg30
Nsg31
(dp1824
I0
g1706
ssg49
(dp1825
sbssI144
(dp1826
g15
g0
(g18
g2
Ntp1827
Rp1828
(dp1829
g22
(lp1830
sg24
S'ovs-sw149'
p1831
sg26
Nsg27
I149
sg28
Nsg29
Nsg30
Nsg31
(dp1832
I0
g1720
ssg49
(dp1833
sbssI145
(dp1834
g15
g0
(g18
g2
Ntp1835
Rp1836
(dp1837
g22
(lp1838
sg24
S'ovs-sw150'
p1839
sg26
Nsg27
I150
sg28
Nsg29
Nsg30
Nsg31
(dp1840
I0
g1723
ssg49
(dp1841
sbssI146
(dp1842
g15
g0
(g18
g2
Ntp1843
Rp1844
(dp1845
g22
(lp1846
sg24
S'ovs-sw151'
p1847
sg26
Nsg27
I151
sg28
Nsg29
Nsg30
Nsg31
(dp1848
I0
g1737
ssg49
(dp1849
sbssI147
(dp1850
g15
g0
(g18
g2
Ntp1851
Rp1852
(dp1853
g22
(lp1854
sg24
S'ovs-sw152'
p1855
sg26
Nsg27
I152
sg28
Nsg29
Nsg30
Nsg31
(dp1856
I0
g1734
ssg49
(dp1857
sbssI148
(dp1858
g15
g0
(g18
g2
Ntp1859
Rp1860
(dp1861
g22
(lp1862
sg24
S'ovs-sw153'
p1863
sg26
Nsg27
I153
sg28
Nsg29
Nsg30
Nsg31
(dp1864
I0
g1748
ssg49
(dp1865
sbssI149
(dp1866
g15
g0
(g18
g2
Ntp1867
Rp1868
(dp1869
g22
(lp1870
sg24
S'ovs-sw154'
p1871
sg26
Nsg27
I154
sg28
Nsg29
Nsg30
Nsg31
(dp1872
I0
g1751
ssg49
(dp1873
sbssI150
(dp1874
g15
g0
(g18
g2
Ntp1875
Rp1876
(dp1877
g22
(lp1878
sg24
S'ovs-sw155'
p1879
sg26
Nsg27
I155
sg28
Nsg29
Nsg30
Nsg31
(dp1880
I0
g1762
ssg49
(dp1881
sbssI151
(dp1882
g15
g0
(g18
g2
Ntp1883
Rp1884
(dp1885
g22
(lp1886
sg24
S'ovs-sw156'
p1887
sg26
Nsg27
I156
sg28
Nsg29
Nsg30
Nsg31
(dp1888
I0
g1765
ssg49
(dp1889
sbssI152
(dp1890
g15
g0
(g18
g2
Ntp1891
Rp1892
(dp1893
g22
(lp1894
sg24
S'ovs-sw157'
p1895
sg26
Nsg27
I157
sg28
Nsg29
Nsg30
Nsg31
(dp1896
I0
g1776
ssg49
(dp1897
sbssI153
(dp1898
g15
g0
(g18
g2
Ntp1899
Rp1900
(dp1901
g22
(lp1902
sg24
S'ovs-sw158'
p1903
sg26
Nsg27
I158
sg28
Nsg29
Nsg30
Nsg31
(dp1904
I0
g1779
ssg49
(dp1905
sbssI154
(dp1906
g15
g0
(g18
g2
Ntp1907
Rp1908
(dp1909
g22
(lp1910
sg24
S'ovs-sw159'
p1911
sg26
Nsg27
I159
sg28
Nsg29
Nsg30
Nsg31
(dp1912
I0
g1793
ssg49
(dp1913
sbssI155
(dp1914
g15
g0
(g18
g2
Ntp1915
Rp1916
(dp1917
g22
(lp1918
sg24
S'ovs-sw160'
p1919
sg26
Nsg27
I160
sg28
Nsg29
Nsg30
Nsg31
(dp1920
I0
g1790
ssg49
(dp1921
sbssI156
(dp1922
g15
g0
(g18
g2
Ntp1923
Rp1924
(dp1925
g22
(lp1926
sg24
S'ovs-sw161'
p1927
sg26
Nsg27
I161
sg28
Nsg29
Nsg30
Nsg31
(dp1928
I0
g1807
ssg49
(dp1929
sbssI157
(dp1930
g15
g0
(g18
g2
Ntp1931
Rp1932
(dp1933
g22
(lp1934
sg24
S'ovs-sw162'
p1935
sg26
Nsg27
I162
sg28
Nsg29
Nsg30
Nsg31
(dp1936
I0
g1804
ssg49
(dp1937
sbssI158
(dp1938
g15
g0
(g18
g2
Ntp1939
Rp1940
(dp1941
g22
(lp1942
sg24
S'ovs-sw163'
p1943
sg26
Nsg27
I163
sg28
Nsg29
Nsg30
Nsg31
(dp1944
I0
g147
sI1
g0
(g33
g2
Ntp1945
Rp1946
(dp1947
g37
I10
sg38
I1
sg39
I1
sg40
I164
sg41
I1
sg42
I163
sbsI2
g0
(g33
g2
Ntp1948
Rp1949
(dp1950
g37
I10
sg38
I2
sg39
I0
sg40
I165
sg41
I1
sg42
I163
sbssg49
(dp1951
sbssI159
(dp1952
g15
g0
(g18
g2
Ntp1953
Rp1954
(dp1955
g22
(lp1956
sg24
S'ovs-sw164'
p1957
sg26
Nsg27
I164
sg28
Nsg29
Nsg30
Nsg31
(dp1958
I0
g150
sI1
g1946
sI2
g0
(g33
g2
Ntp1959
Rp1960
(dp1961
g37
I10
sg38
I2
sg39
I0
sg40
I173
sg41
I1
sg42
I164
sbssg49
(dp1962
sbssI160
(dp1963
g15
g0
(g18
g2
Ntp1964
Rp1965
(dp1966
g22
(lp1967
sg24
S'ovs-sw165'
p1968
sg26
Nsg27
I165
sg28
Nsg29
Nsg30
Nsg31
(dp1969
I0
g1949
sI1
g0
(g33
g2
Ntp1970
Rp1971
(dp1972
g37
I10
sg38
I1
sg39
I0
sg40
I169
sg41
I1
sg42
I165
sbsI2
g0
(g33
g2
Ntp1973
Rp1974
(dp1975
g37
I10
sg38
I2
sg39
I0
sg40
I171
sg41
I1
sg42
I165
sbsI3
g0
(g33
g2
Ntp1976
Rp1977
(dp1978
g37
I10
sg38
I3
sg39
I0
sg40
I166
sg41
I1
sg42
I165
sbsI4
g0
(g33
g2
Ntp1979
Rp1980
(dp1981
g37
I10
sg38
I4
sg39
I0
sg40
I167
sg41
I1
sg42
I165
sbssg49
(dp1982
sbssI161
(dp1983
g15
g0
(g18
g2
Ntp1984
Rp1985
(dp1986
g22
(lp1987
sg24
S'ovs-sw166'
p1988
sg26
Nsg27
I166
sg28
Nsg29
Nsg30
Nsg31
(dp1989
I0
g1977
ssg49
(dp1990
sbssI162
(dp1991
g15
g0
(g18
g2
Ntp1992
Rp1993
(dp1994
g22
(lp1995
sg24
S'ovs-sw167'
p1996
sg26
Nsg27
I167
sg28
Nsg29
Nsg30
Nsg31
(dp1997
I0
g1980
sI1
g0
(g33
g2
Ntp1998
Rp1999
(dp2000
g37
I10
sg38
I1
sg39
I0
sg40
I168
sg41
I1
sg42
I167
sbssg49
(dp2001
sbssI163
(dp2002
g15
g0
(g18
g2
Ntp2003
Rp2004
(dp2005
g22
(lp2006
sg24
S'ovs-sw168'
p2007
sg26
Nsg27
I168
sg28
Nsg29
Nsg30
Nsg31
(dp2008
I0
g1999
ssg49
(dp2009
sbssI164
(dp2010
g15
g0
(g18
g2
Ntp2011
Rp2012
(dp2013
g22
(lp2014
sg24
S'ovs-sw169'
p2015
sg26
Nsg27
I169
sg28
Nsg29
Nsg30
Nsg31
(dp2016
I0
g1971
ssg49
(dp2017
sbssI165
(dp2018
g15
g0
(g18
g2
Ntp2019
Rp2020
(dp2021
g22
(lp2022
sg24
S'ovs-sw170'
p2023
sg26
Nsg27
I170
sg28
Nsg29
Nsg30
Nsg31
(dp2024
I0
g0
(g33
g2
Ntp2025
Rp2026
(dp2027
g37
I10
sg38
I0
sg39
I1
sg40
I171
sg41
I1
sg42
I170
sbssg49
(dp2028
sbssI166
(dp2029
g15
g0
(g18
g2
Ntp2030
Rp2031
(dp2032
g22
(lp2033
sg24
S'ovs-sw171'
p2034
sg26
Nsg27
I171
sg28
Nsg29
Nsg30
Nsg31
(dp2035
I0
g1974
sI1
g2026
ssg49
(dp2036
sbssI167
(dp2037
g15
g0
(g18
g2
Ntp2038
Rp2039
(dp2040
g22
(lp2041
sg24
S'ovs-sw173'
p2042
sg26
Nsg27
I173
sg28
Nsg29
Nsg30
Nsg31
(dp2043
I0
g1960
sI1
g0
(g33
g2
Ntp2044
Rp2045
(dp2046
g37
I10
sg38
I1
sg39
I0
sg40
I175
sg41
I1
sg42
I173
sbssg49
(dp2047
sbssI168
(dp2048
g15
g0
(g18
g2
Ntp2049
Rp2050
(dp2051
g22
(lp2052
sg24
S'ovs-sw175'
p2053
sg26
Nsg27
I175
sg28
Nsg29
Nsg30
Nsg31
(dp2054
I0
g2045
ssg49
(dp2055
sbssI169
(dp2056
g15
g0
(g18
g2
Ntp2057
Rp2058
(dp2059
g22
(lp2060
sg24
S'ovs-sw176'
p2061
sg26
Nsg27
I176
sg28
Nsg29
Nsg30
Nsg31
(dp2062
I0
g161
sI1
g0
(g33
g2
Ntp2063
Rp2064
(dp2065
g37
I10
sg38
I1
sg39
I1
sg40
I177
sg41
I10
sg42
I176
sbsI2
g0
(g33
g2
Ntp2066
Rp2067
(dp2068
g37
I10
sg38
I2
sg39
I0
sg40
I178
sg41
I10
sg42
I176
sbsI3
g0
(g33
g2
Ntp2069
Rp2070
(dp2071
g37
I10
sg38
I3
sg39
I0
sg40
I179
sg41
I10
sg42
I176
sbsI4
g0
(g33
g2
Ntp2072
Rp2073
(dp2074
g37
I10
sg38
I4
sg39
I0
sg40
I180
sg41
I10
sg42
I176
sbsI5
g0
(g33
g2
Ntp2075
Rp2076
(dp2077
g37
I10
sg38
I5
sg39
I0
sg40
I181
sg41
I10
sg42
I176
sbssg49
(dp2078
sbssI170
(dp2079
g15
g0
(g18
g2
Ntp2080
Rp2081
(dp2082
g22
(lp2083
sg24
S'ovs-sw177'
p2084
sg26
Nsg27
I177
sg28
Nsg29
Nsg30
Nsg31
(dp2085
I0
g167
sI1
g2064
sI2
g0
(g33
g2
Ntp2086
Rp2087
(dp2088
g37
I10
sg38
I2
sg39
I0
sg40
I214
sg41
I10
sg42
I177
sbsI3
g0
(g33
g2
Ntp2089
Rp2090
(dp2091
g37
I10
sg38
I3
sg39
I0
sg40
I215
sg41
I10
sg42
I177
sbsI4
g0
(g33
g2
Ntp2092
Rp2093
(dp2094
g37
I10
sg38
I4
sg39
I0
sg40
I216
sg41
I10
sg42
I177
sbsI5
g0
(g33
g2
Ntp2095
Rp2096
(dp2097
g37
I10
sg38
I5
sg39
I0
sg40
I217
sg41
I10
sg42
I177
sbssg49
(dp2098
sbssI171
(dp2099
g15
g0
(g18
g2
Ntp2100
Rp2101
(dp2102
g22
(lp2103
sg24
S'ovs-sw178'
p2104
sg26
Nsg27
I178
sg28
Nsg29
Nsg30
Nsg31
(dp2105
I0
g2067
sI1
g0
(g33
g2
Ntp2106
Rp2107
(dp2108
g37
I10
sg38
I1
sg39
I0
sg40
I184
sg41
I10
sg42
I178
sbsI2
g0
(g33
g2
Ntp2109
Rp2110
(dp2111
g37
I10
sg38
I2
sg39
I0
sg40
I186
sg41
I10
sg42
I178
sbsI3
g0
(g33
g2
Ntp2112
Rp2113
(dp2114
g37
I10
sg38
I3
sg39
I0
sg40
I188
sg41
I10
sg42
I178
sbsI4
g0
(g33
g2
Ntp2115
Rp2116
(dp2117
g37
I10
sg38
I4
sg39
I0
sg40
I182
sg41
I10
sg42
I178
sbssg49
(dp2118
sbssI172
(dp2119
g15
g0
(g18
g2
Ntp2120
Rp2121
(dp2122
g22
(lp2123
sg24
S'ovs-sw179'
p2124
sg26
Nsg27
I179
sg28
Nsg29
Nsg30
Nsg31
(dp2125
I0
g2070
sI1
g0
(g33
g2
Ntp2126
Rp2127
(dp2128
g37
I10
sg38
I1
sg39
I1
sg40
I184
sg41
I10
sg42
I179
sbsI2
g0
(g33
g2
Ntp2129
Rp2130
(dp2131
g37
I10
sg38
I2
sg39
I1
sg40
I186
sg41
I10
sg42
I179
sbsI3
g0
(g33
g2
Ntp2132
Rp2133
(dp2134
g37
I10
sg38
I3
sg39
I1
sg40
I188
sg41
I10
sg42
I179
sbsI4
g0
(g33
g2
Ntp2135
Rp2136
(dp2137
g37
I10
sg38
I4
sg39
I1
sg40
I182
sg41
I10
sg42
I179
sbssg49
(dp2138
sbssI173
(dp2139
g15
g0
(g18
g2
Ntp2140
Rp2141
(dp2142
g22
(lp2143
sg24
S'ovs-sw180'
p2144
sg26
Nsg27
I180
sg28
Nsg29
Nsg30
Nsg31
(dp2145
I0
g2073
sI1
g0
(g33
g2
Ntp2146
Rp2147
(dp2148
g37
I10
sg38
I1
sg39
I0
sg40
I185
sg41
I10
sg42
I180
sbsI2
g0
(g33
g2
Ntp2149
Rp2150
(dp2151
g37
I10
sg38
I2
sg39
I0
sg40
I187
sg41
I10
sg42
I180
sbsI3
g0
(g33
g2
Ntp2152
Rp2153
(dp2154
g37
I10
sg38
I3
sg39
I0
sg40
I189
sg41
I10
sg42
I180
sbsI4
g0
(g33
g2
Ntp2155
Rp2156
(dp2157
g37
I10
sg38
I4
sg39
I0
sg40
I183
sg41
I10
sg42
I180
sbssg49
(dp2158
sbssI174
(dp2159
g15
g0
(g18
g2
Ntp2160
Rp2161
(dp2162
g22
(lp2163
sg24
S'ovs-sw181'
p2164
sg26
Nsg27
I181
sg28
Nsg29
Nsg30
Nsg31
(dp2165
I0
g2076
sI1
g0
(g33
g2
Ntp2166
Rp2167
(dp2168
g37
I10
sg38
I1
sg39
I1
sg40
I185
sg41
I10
sg42
I181
sbsI2
g0
(g33
g2
Ntp2169
Rp2170
(dp2171
g37
I10
sg38
I2
sg39
I1
sg40
I187
sg41
I10
sg42
I181
sbsI3
g0
(g33
g2
Ntp2172
Rp2173
(dp2174
g37
I10
sg38
I3
sg39
I1
sg40
I189
sg41
I10
sg42
I181
sbsI4
g0
(g33
g2
Ntp2175
Rp2176
(dp2177
g37
I10
sg38
I4
sg39
I1
sg40
I183
sg41
I10
sg42
I181
sbssg49
(dp2178
sbssI175
(dp2179
g15
g0
(g18
g2
Ntp2180
Rp2181
(dp2182
g22
(lp2183
sg24
S'ovs-sw182'
p2184
sg26
Nsg27
I182
sg28
Nsg29
Nsg30
Nsg31
(dp2185
I0
g2116
sI1
g2136
sI2
g0
(g33
g2
Ntp2186
Rp2187
(dp2188
g37
I10
sg38
I2
sg39
I0
sg40
I190
sg41
I10
sg42
I182
sbsI3
g0
(g33
g2
Ntp2189
Rp2190
(dp2191
g37
I10
sg38
I3
sg39
I0
sg40
I191
sg41
I10
sg42
I182
sbssg49
(dp2192
sbssI176
(dp2193
g15
g0
(g18
g2
Ntp2194
Rp2195
(dp2196
g22
(lp2197
sg24
S'ovs-sw183'
p2198
sg26
Nsg27
I183
sg28
Nsg29
Nsg30
Nsg31
(dp2199
I0
g2156
sI1
g2176
sI2
g0
(g33
g2
Ntp2200
Rp2201
(dp2202
g37
I10
sg38
I2
sg39
I1
sg40
I190
sg41
I10
sg42
I183
sbsI3
g0
(g33
g2
Ntp2203
Rp2204
(dp2205
g37
I10
sg38
I3
sg39
I1
sg40
I191
sg41
I10
sg42
I183
sbssg49
(dp2206
sbssI177
(dp2207
g15
g0
(g18
g2
Ntp2208
Rp2209
(dp2210
g22
(lp2211
sg24
S'ovs-sw184'
p2212
sg26
Nsg27
I184
sg28
Nsg29
Nsg30
Nsg31
(dp2213
I0
g2107
sI1
g2127
sI2
g0
(g33
g2
Ntp2214
Rp2215
(dp2216
g37
I10
sg38
I2
sg39
I0
sg40
I192
sg41
I10
sg42
I184
sbsI3
g0
(g33
g2
Ntp2217
Rp2218
(dp2219
g37
I10
sg38
I3
sg39
I0
sg40
I193
sg41
I10
sg42
I184
sbssg49
(dp2220
sbssI178
(dp2221
g15
g0
(g18
g2
Ntp2222
Rp2223
(dp2224
g22
(lp2225
sg24
S'ovs-sw185'
p2226
sg26
Nsg27
I185
sg28
Nsg29
Nsg30
Nsg31
(dp2227
I0
g2147
sI1
g2167
sI2
g0
(g33
g2
Ntp2228
Rp2229
(dp2230
g37
I10
sg38
I2
sg39
I1
sg40
I192
sg41
I10
sg42
I185
sbsI3
g0
(g33
g2
Ntp2231
Rp2232
(dp2233
g37
I10
sg38
I3
sg39
I1
sg40
I193
sg41
I10
sg42
I185
sbssg49
(dp2234
sbssI179
(dp2235
g15
g0
(g18
g2
Ntp2236
Rp2237
(dp2238
g22
(lp2239
sg24
S'ovs-sw186'
p2240
sg26
Nsg27
I186
sg28
Nsg29
Nsg30
Nsg31
(dp2241
I0
g2110
sI1
g2130
sI2
g0
(g33
g2
Ntp2242
Rp2243
(dp2244
g37
I10
sg38
I2
sg39
I0
sg40
I194
sg41
I10
sg42
I186
sbsI3
g0
(g33
g2
Ntp2245
Rp2246
(dp2247
g37
I10
sg38
I3
sg39
I0
sg40
I195
sg41
I10
sg42
I186
sbssg49
(dp2248
sbssI180
(dp2249
g15
g0
(g18
g2
Ntp2250
Rp2251
(dp2252
g22
(lp2253
sg24
S'ovs-sw187'
p2254
sg26
Nsg27
I187
sg28
Nsg29
Nsg30
Nsg31
(dp2255
I0
g2150
sI1
g2170
sI2
g0
(g33
g2
Ntp2256
Rp2257
(dp2258
g37
I10
sg38
I2
sg39
I1
sg40
I194
sg41
I10
sg42
I187
sbsI3
g0
(g33
g2
Ntp2259
Rp2260
(dp2261
g37
I10
sg38
I3
sg39
I1
sg40
I195
sg41
I10
sg42
I187
sbssg49
(dp2262
sbssI181
(dp2263
g15
g0
(g18
g2
Ntp2264
Rp2265
(dp2266
g22
(lp2267
sg24
S'ovs-sw188'
p2268
sg26
Nsg27
I188
sg28
Nsg29
Nsg30
Nsg31
(dp2269
I0
g2113
sI1
g2133
sI2
g0
(g33
g2
Ntp2270
Rp2271
(dp2272
g37
I10
sg38
I2
sg39
I0
sg40
I196
sg41
I10
sg42
I188
sbsI3
g0
(g33
g2
Ntp2273
Rp2274
(dp2275
g37
I10
sg38
I3
sg39
I0
sg40
I197
sg41
I10
sg42
I188
sbssg49
(dp2276
sbssI182
(dp2277
g15
g0
(g18
g2
Ntp2278
Rp2279
(dp2280
g22
(lp2281
sg24
S'ovs-sw189'
p2282
sg26
Nsg27
I189
sg28
Nsg29
Nsg30
Nsg31
(dp2283
I0
g2153
sI1
g2173
sI2
g0
(g33
g2
Ntp2284
Rp2285
(dp2286
g37
I10
sg38
I2
sg39
I1
sg40
I196
sg41
I10
sg42
I189
sbsI3
g0
(g33
g2
Ntp2287
Rp2288
(dp2289
g37
I10
sg38
I3
sg39
I1
sg40
I197
sg41
I10
sg42
I189
sbssg49
(dp2290
sbssI183
(dp2291
g15
g0
(g18
g2
Ntp2292
Rp2293
(dp2294
g22
(lp2295
sg24
S'ovs-sw190'
p2296
sg26
Nsg27
I190
sg28
Nsg29
Nsg30
Nsg31
(dp2297
I0
g2187
sI1
g2201
sI2
g0
(g33
g2
Ntp2298
Rp2299
(dp2300
g37
I10
sg38
I2
sg39
I0
sg40
I199
sg41
I10
sg42
I190
sbsI3
g0
(g33
g2
Ntp2301
Rp2302
(dp2303
g37
I10
sg38
I3
sg39
I0
sg40
I198
sg41
I10
sg42
I190
sbssg49
(dp2304
sbssI184
(dp2305
g15
g0
(g18
g2
Ntp2306
Rp2307
(dp2308
g22
(lp2309
sg24
S'ovs-sw191'
p2310
sg26
Nsg27
I191
sg28
Nsg29
Nsg30
Nsg31
(dp2311
I0
g2190
sI1
g2204
sI2
g0
(g33
g2
Ntp2312
Rp2313
(dp2314
g37
I10
sg38
I2
sg39
I0
sg40
I200
sg41
I10
sg42
I191
sbsI3
g0
(g33
g2
Ntp2315
Rp2316
(dp2317
g37
I10
sg38
I3
sg39
I0
sg40
I201
sg41
I10
sg42
I191
sbssg49
(dp2318
sbssI185
(dp2319
g15
g0
(g18
g2
Ntp2320
Rp2321
(dp2322
g22
(lp2323
sg24
S'ovs-sw192'
p2324
sg26
Nsg27
I192
sg28
Nsg29
Nsg30
Nsg31
(dp2325
I0
g2215
sI1
g2229
sI2
g0
(g33
g2
Ntp2326
Rp2327
(dp2328
g37
I10
sg38
I2
sg39
I0
sg40
I202
sg41
I10
sg42
I192
sbsI3
g0
(g33
g2
Ntp2329
Rp2330
(dp2331
g37
I10
sg38
I3
sg39
I0
sg40
I203
sg41
I10
sg42
I192
sbssg49
(dp2332
sbssI186
(dp2333
g15
g0
(g18
g2
Ntp2334
Rp2335
(dp2336
g22
(lp2337
sg24
S'ovs-sw193'
p2338
sg26
Nsg27
I193
sg28
Nsg29
Nsg30
Nsg31
(dp2339
I0
g2218
sI1
g2232
sI2
g0
(g33
g2
Ntp2340
Rp2341
(dp2342
g37
I10
sg38
I2
sg39
I0
sg40
I204
sg41
I10
sg42
I193
sbsI3
g0
(g33
g2
Ntp2343
Rp2344
(dp2345
g37
I10
sg38
I3
sg39
I0
sg40
I205
sg41
I10
sg42
I193
sbssg49
(dp2346
sbssI187
(dp2347
g15
g0
(g18
g2
Ntp2348
Rp2349
(dp2350
g22
(lp2351
sg24
S'ovs-sw194'
p2352
sg26
Nsg27
I194
sg28
Nsg29
Nsg30
Nsg31
(dp2353
I0
g2243
sI1
g2257
sI2
g0
(g33
g2
Ntp2354
Rp2355
(dp2356
g37
I10
sg38
I2
sg39
I0
sg40
I206
sg41
I10
sg42
I194
sbsI3
g0
(g33
g2
Ntp2357
Rp2358
(dp2359
g37
I10
sg38
I3
sg39
I0
sg40
I207
sg41
I10
sg42
I194
sbssg49
(dp2360
sbssI188
(dp2361
g15
g0
(g18
g2
Ntp2362
Rp2363
(dp2364
g22
(lp2365
sg24
S'ovs-sw195'
p2366
sg26
Nsg27
I195
sg28
Nsg29
Nsg30
Nsg31
(dp2367
I0
g2246
sI1
g2260
sI2
g0
(g33
g2
Ntp2368
Rp2369
(dp2370
g37
I10
sg38
I2
sg39
I0
sg40
I208
sg41
I10
sg42
I195
sbsI3
g0
(g33
g2
Ntp2371
Rp2372
(dp2373
g37
I10
sg38
I3
sg39
I0
sg40
I209
sg41
I10
sg42
I195
sbssg49
(dp2374
sbssI189
(dp2375
g15
g0
(g18
g2
Ntp2376
Rp2377
(dp2378
g22
(lp2379
sg24
S'ovs-sw196'
p2380
sg26
Nsg27
I196
sg28
Nsg29
Nsg30
Nsg31
(dp2381
I0
g2271
sI1
g2285
sI2
g0
(g33
g2
Ntp2382
Rp2383
(dp2384
g37
I10
sg38
I2
sg39
I0
sg40
I210
sg41
I10
sg42
I196
sbsI3
g0
(g33
g2
Ntp2385
Rp2386
(dp2387
g37
I10
sg38
I3
sg39
I0
sg40
I211
sg41
I10
sg42
I196
sbssg49
(dp2388
sbssI190
(dp2389
g15
g0
(g18
g2
Ntp2390
Rp2391
(dp2392
g22
(lp2393
sg24
S'ovs-sw197'
p2394
sg26
Nsg27
I197
sg28
Nsg29
Nsg30
Nsg31
(dp2395
I0
g2274
sI1
g2288
sI2
g0
(g33
g2
Ntp2396
Rp2397
(dp2398
g37
I10
sg38
I2
sg39
I0
sg40
I212
sg41
I10
sg42
I197
sbsI3
g0
(g33
g2
Ntp2399
Rp2400
(dp2401
g37
I10
sg38
I3
sg39
I0
sg40
I213
sg41
I10
sg42
I197
sbssg49
(dp2402
sbssI191
(dp2403
g15
g0
(g18
g2
Ntp2404
Rp2405
(dp2406
g22
(lp2407
sg24
S'ovs-sw198'
p2408
sg26
Nsg27
I198
sg28
Nsg29
Nsg30
Nsg31
(dp2409
I0
g2302
ssg49
(dp2410
sbssI192
(dp2411
g15
g0
(g18
g2
Ntp2412
Rp2413
(dp2414
g22
(lp2415
sg24
S'ovs-sw199'
p2416
sg26
Nsg27
I199
sg28
Nsg29
Nsg30
Nsg31
(dp2417
I0
g2299
ssg49
(dp2418
sbssI193
(dp2419
g15
g0
(g18
g2
Ntp2420
Rp2421
(dp2422
g22
(lp2423
sg24
S'ovs-sw200'
p2424
sg26
Nsg27
I200
sg28
Nsg29
Nsg30
Nsg31
(dp2425
I0
g2313
ssg49
(dp2426
sbssI194
(dp2427
g15
g0
(g18
g2
Ntp2428
Rp2429
(dp2430
g22
(lp2431
sg24
S'ovs-sw201'
p2432
sg26
Nsg27
I201
sg28
Nsg29
Nsg30
Nsg31
(dp2433
I0
g2316
ssg49
(dp2434
sbssI195
(dp2435
g15
g0
(g18
g2
Ntp2436
Rp2437
(dp2438
g22
(lp2439
sg24
S'ovs-sw202'
p2440
sg26
Nsg27
I202
sg28
Nsg29
Nsg30
Nsg31
(dp2441
I0
g2327
ssg49
(dp2442
sbssI196
(dp2443
g15
g0
(g18
g2
Ntp2444
Rp2445
(dp2446
g22
(lp2447
sg24
S'ovs-sw203'
p2448
sg26
Nsg27
I203
sg28
Nsg29
Nsg30
Nsg31
(dp2449
I0
g2330
ssg49
(dp2450
sbssI197
(dp2451
g15
g0
(g18
g2
Ntp2452
Rp2453
(dp2454
g22
(lp2455
sg24
S'ovs-sw204'
p2456
sg26
Nsg27
I204
sg28
Nsg29
Nsg30
Nsg31
(dp2457
I0
g2341
ssg49
(dp2458
sbssI198
(dp2459
g15
g0
(g18
g2
Ntp2460
Rp2461
(dp2462
g22
(lp2463
sg24
S'ovs-sw205'
p2464
sg26
Nsg27
I205
sg28
Nsg29
Nsg30
Nsg31
(dp2465
I0
g2344
ssg49
(dp2466
sbssI199
(dp2467
g15
g0
(g18
g2
Ntp2468
Rp2469
(dp2470
g22
(lp2471
sg24
S'ovs-sw206'
p2472
sg26
Nsg27
I206
sg28
Nsg29
Nsg30
Nsg31
(dp2473
I0
g2355
ssg49
(dp2474
sbssI200
(dp2475
g15
g0
(g18
g2
Ntp2476
Rp2477
(dp2478
g22
(lp2479
sg24
S'ovs-sw207'
p2480
sg26
Nsg27
I207
sg28
Nsg29
Nsg30
Nsg31
(dp2481
I0
g2358
ssg49
(dp2482
sbssI201
(dp2483
g15
g0
(g18
g2
Ntp2484
Rp2485
(dp2486
g22
(lp2487
sg24
S'ovs-sw208'
p2488
sg26
Nsg27
I208
sg28
Nsg29
Nsg30
Nsg31
(dp2489
I0
g2369
ssg49
(dp2490
sbssI202
(dp2491
g15
g0
(g18
g2
Ntp2492
Rp2493
(dp2494
g22
(lp2495
sg24
S'ovs-sw209'
p2496
sg26
Nsg27
I209
sg28
Nsg29
Nsg30
Nsg31
(dp2497
I0
g2372
ssg49
(dp2498
sbssI203
(dp2499
g15
g0
(g18
g2
Ntp2500
Rp2501
(dp2502
g22
(lp2503
sg24
S'ovs-sw210'
p2504
sg26
Nsg27
I210
sg28
Nsg29
Nsg30
Nsg31
(dp2505
I0
g2383
ssg49
(dp2506
sbssI204
(dp2507
g15
g0
(g18
g2
Ntp2508
Rp2509
(dp2510
g22
(lp2511
sg24
S'ovs-sw211'
p2512
sg26
Nsg27
I211
sg28
Nsg29
Nsg30
Nsg31
(dp2513
I0
g2386
ssg49
(dp2514
sbssI205
(dp2515
g15
g0
(g18
g2
Ntp2516
Rp2517
(dp2518
g22
(lp2519
sg24
S'ovs-sw212'
p2520
sg26
Nsg27
I212
sg28
Nsg29
Nsg30
Nsg31
(dp2521
I0
g2397
ssg49
(dp2522
sbssI206
(dp2523
g15
g0
(g18
g2
Ntp2524
Rp2525
(dp2526
g22
(lp2527
sg24
S'ovs-sw213'
p2528
sg26
Nsg27
I213
sg28
Nsg29
Nsg30
Nsg31
(dp2529
I0
g2400
ssg49
(dp2530
sbssI207
(dp2531
g15
g0
(g18
g2
Ntp2532
Rp2533
(dp2534
g22
(lp2535
sg24
S'ovs-sw214'
p2536
sg26
Nsg27
I214
sg28
Nsg29
Nsg30
Nsg31
(dp2537
I0
g2087
sI1
g0
(g33
g2
Ntp2538
Rp2539
(dp2540
g37
I10
sg38
I1
sg39
I0
sg40
I224
sg41
I10
sg42
I214
sbsI2
g0
(g33
g2
Ntp2541
Rp2542
(dp2543
g37
I10
sg38
I2
sg39
I0
sg40
I218
sg41
I10
sg42
I214
sbsI3
g0
(g33
g2
Ntp2544
Rp2545
(dp2546
g37
I10
sg38
I3
sg39
I0
sg40
I220
sg41
I10
sg42
I214
sbsI4
g0
(g33
g2
Ntp2547
Rp2548
(dp2549
g37
I10
sg38
I4
sg39
I0
sg40
I222
sg41
I10
sg42
I214
sbssg49
(dp2550
sbssI208
(dp2551
g15
g0
(g18
g2
Ntp2552
Rp2553
(dp2554
g22
(lp2555
sg24
S'ovs-sw215'
p2556
sg26
Nsg27
I215
sg28
Nsg29
Nsg30
Nsg31
(dp2557
I0
g2090
sI1
g0
(g33
g2
Ntp2558
Rp2559
(dp2560
g37
I10
sg38
I1
sg39
I1
sg40
I224
sg41
I10
sg42
I215
sbsI2
g0
(g33
g2
Ntp2561
Rp2562
(dp2563
g37
I10
sg38
I2
sg39
I1
sg40
I218
sg41
I10
sg42
I215
sbsI3
g0
(g33
g2
Ntp2564
Rp2565
(dp2566
g37
I10
sg38
I3
sg39
I1
sg40
I220
sg41
I10
sg42
I215
sbsI4
g0
(g33
g2
Ntp2567
Rp2568
(dp2569
g37
I10
sg38
I4
sg39
I1
sg40
I222
sg41
I10
sg42
I215
sbssg49
(dp2570
sbssI209
(dp2571
g15
g0
(g18
g2
Ntp2572
Rp2573
(dp2574
g22
(lp2575
sg24
S'ovs-sw216'
p2576
sg26
Nsg27
I216
sg28
Nsg29
Nsg30
Nsg31
(dp2577
I0
g2093
sI1
g0
(g33
g2
Ntp2578
Rp2579
(dp2580
g37
I10
sg38
I1
sg39
I0
sg40
I225
sg41
I10
sg42
I216
sbsI2
g0
(g33
g2
Ntp2581
Rp2582
(dp2583
g37
I10
sg38
I2
sg39
I0
sg40
I219
sg41
I10
sg42
I216
sbsI3
g0
(g33
g2
Ntp2584
Rp2585
(dp2586
g37
I10
sg38
I3
sg39
I0
sg40
I221
sg41
I10
sg42
I216
sbsI4
g0
(g33
g2
Ntp2587
Rp2588
(dp2589
g37
I10
sg38
I4
sg39
I0
sg40
I223
sg41
I10
sg42
I216
sbssg49
(dp2590
sbssI210
(dp2591
g15
g0
(g18
g2
Ntp2592
Rp2593
(dp2594
g22
(lp2595
sg24
S'ovs-sw217'
p2596
sg26
Nsg27
I217
sg28
Nsg29
Nsg30
Nsg31
(dp2597
I0
g2096
sI1
g0
(g33
g2
Ntp2598
Rp2599
(dp2600
g37
I10
sg38
I1
sg39
I1
sg40
I225
sg41
I10
sg42
I217
sbsI2
g0
(g33
g2
Ntp2601
Rp2602
(dp2603
g37
I10
sg38
I2
sg39
I1
sg40
I219
sg41
I10
sg42
I217
sbsI3
g0
(g33
g2
Ntp2604
Rp2605
(dp2606
g37
I10
sg38
I3
sg39
I1
sg40
I221
sg41
I10
sg42
I217
sbsI4
g0
(g33
g2
Ntp2607
Rp2608
(dp2609
g37
I10
sg38
I4
sg39
I1
sg40
I223
sg41
I10
sg42
I217
sbssg49
(dp2610
sbssI211
(dp2611
g15
g0
(g18
g2
Ntp2612
Rp2613
(dp2614
g22
(lp2615
sg24
S'ovs-sw218'
p2616
sg26
Nsg27
I218
sg28
Nsg29
Nsg30
Nsg31
(dp2617
I0
g2542
sI1
g2562
sI2
g0
(g33
g2
Ntp2618
Rp2619
(dp2620
g37
I10
sg38
I2
sg39
I0
sg40
I226
sg41
I10
sg42
I218
sbsI3
g0
(g33
g2
Ntp2621
Rp2622
(dp2623
g37
I10
sg38
I3
sg39
I0
sg40
I227
sg41
I10
sg42
I218
sbssg49
(dp2624
sbssI212
(dp2625
g15
g0
(g18
g2
Ntp2626
Rp2627
(dp2628
g22
(lp2629
sg24
S'ovs-sw219'
p2630
sg26
Nsg27
I219
sg28
Nsg29
Nsg30
Nsg31
(dp2631
I0
g2582
sI1
g2602
sI2
g0
(g33
g2
Ntp2632
Rp2633
(dp2634
g37
I10
sg38
I2
sg39
I1
sg40
I226
sg41
I10
sg42
I219
sbsI3
g0
(g33
g2
Ntp2635
Rp2636
(dp2637
g37
I10
sg38
I3
sg39
I1
sg40
I227
sg41
I10
sg42
I219
sbssg49
(dp2638
sbssI213
(dp2639
g15
g0
(g18
g2
Ntp2640
Rp2641
(dp2642
g22
(lp2643
sg24
S'ovs-sw220'
p2644
sg26
Nsg27
I220
sg28
Nsg29
Nsg30
Nsg31
(dp2645
I0
g2545
sI1
g2565
sI2
g0
(g33
g2
Ntp2646
Rp2647
(dp2648
g37
I10
sg38
I2
sg39
I0
sg40
I228
sg41
I10
sg42
I220
sbsI3
g0
(g33
g2
Ntp2649
Rp2650
(dp2651
g37
I10
sg38
I3
sg39
I0
sg40
I229
sg41
I10
sg42
I220
sbssg49
(dp2652
sbssI214
(dp2653
g15
g0
(g18
g2
Ntp2654
Rp2655
(dp2656
g22
(lp2657
sg24
S'ovs-sw221'
p2658
sg26
Nsg27
I221
sg28
Nsg29
Nsg30
Nsg31
(dp2659
I0
g2585
sI1
g2605
sI2
g0
(g33
g2
Ntp2660
Rp2661
(dp2662
g37
I10
sg38
I2
sg39
I1
sg40
I228
sg41
I10
sg42
I221
sbsI3
g0
(g33
g2
Ntp2663
Rp2664
(dp2665
g37
I10
sg38
I3
sg39
I1
sg40
I229
sg41
I10
sg42
I221
sbssg49
(dp2666
sbssI215
(dp2667
g15
g0
(g18
g2
Ntp2668
Rp2669
(dp2670
g22
(lp2671
sg24
S'ovs-sw222'
p2672
sg26
Nsg27
I222
sg28
Nsg29
Nsg30
Nsg31
(dp2673
I0
g2548
sI1
g2568
sI2
g0
(g33
g2
Ntp2674
Rp2675
(dp2676
g37
I10
sg38
I2
sg39
I0
sg40
I231
sg41
I10
sg42
I222
sbsI3
g0
(g33
g2
Ntp2677
Rp2678
(dp2679
g37
I10
sg38
I3
sg39
I0
sg40
I230
sg41
I10
sg42
I222
sbssg49
(dp2680
sbssI216
(dp2681
g15
g0
(g18
g2
Ntp2682
Rp2683
(dp2684
g22
(lp2685
sg24
S'ovs-sw223'
p2686
sg26
Nsg27
I223
sg28
Nsg29
Nsg30
Nsg31
(dp2687
I0
g2588
sI1
g2608
sI2
g0
(g33
g2
Ntp2688
Rp2689
(dp2690
g37
I10
sg38
I2
sg39
I1
sg40
I230
sg41
I10
sg42
I223
sbsI3
g0
(g33
g2
Ntp2691
Rp2692
(dp2693
g37
I10
sg38
I3
sg39
I1
sg40
I231
sg41
I10
sg42
I223
sbssg49
(dp2694
sbssI217
(dp2695
g15
g0
(g18
g2
Ntp2696
Rp2697
(dp2698
g22
(lp2699
sg24
S'ovs-sw224'
p2700
sg26
Nsg27
I224
sg28
Nsg29
Nsg30
Nsg31
(dp2701
I0
g2539
sI1
g2559
sI2
g0
(g33
g2
Ntp2702
Rp2703
(dp2704
g37
I10
sg38
I2
sg39
I0
sg40
I232
sg41
I10
sg42
I224
sbsI3
g0
(g33
g2
Ntp2705
Rp2706
(dp2707
g37
I10
sg38
I3
sg39
I0
sg40
I233
sg41
I10
sg42
I224
sbssg49
(dp2708
sbssI218
(dp2709
g15
g0
(g18
g2
Ntp2710
Rp2711
(dp2712
g22
(lp2713
sg24
S'ovs-sw225'
p2714
sg26
Nsg27
I225
sg28
Nsg29
Nsg30
Nsg31
(dp2715
I0
g2579
sI1
g2599
sI2
g0
(g33
g2
Ntp2716
Rp2717
(dp2718
g37
I10
sg38
I2
sg39
I1
sg40
I232
sg41
I10
sg42
I225
sbsI3
g0
(g33
g2
Ntp2719
Rp2720
(dp2721
g37
I10
sg38
I3
sg39
I1
sg40
I233
sg41
I10
sg42
I225
sbssg49
(dp2722
sbssI219
(dp2723
g15
g0
(g18
g2
Ntp2724
Rp2725
(dp2726
g22
(lp2727
sg24
S'ovs-sw226'
p2728
sg26
Nsg27
I226
sg28
Nsg29
Nsg30
Nsg31
(dp2729
I0
g2619
sI1
g2633
sI2
g0
(g33
g2
Ntp2730
Rp2731
(dp2732
g37
I10
sg38
I2
sg39
I0
sg40
I234
sg41
I10
sg42
I226
sbsI3
g0
(g33
g2
Ntp2733
Rp2734
(dp2735
g37
I10
sg38
I3
sg39
I0
sg40
I235
sg41
I10
sg42
I226
sbssg49
(dp2736
sbssI220
(dp2737
g15
g0
(g18
g2
Ntp2738
Rp2739
(dp2740
g22
(lp2741
sg24
S'ovs-sw227'
p2742
sg26
Nsg27
I227
sg28
Nsg29
Nsg30
Nsg31
(dp2743
I0
g2622
sI1
g2636
sI2
g0
(g33
g2
Ntp2744
Rp2745
(dp2746
g37
I10
sg38
I2
sg39
I0
sg40
I236
sg41
I10
sg42
I227
sbsI3
g0
(g33
g2
Ntp2747
Rp2748
(dp2749
g37
I10
sg38
I3
sg39
I0
sg40
I237
sg41
I10
sg42
I227
sbssg49
(dp2750
sbssI221
(dp2751
g15
g0
(g18
g2
Ntp2752
Rp2753
(dp2754
g22
(lp2755
sg24
S'ovs-sw228'
p2756
sg26
Nsg27
I228
sg28
Nsg29
Nsg30
Nsg31
(dp2757
I0
g2647
sI1
g2661
sI2
g0
(g33
g2
Ntp2758
Rp2759
(dp2760
g37
I10
sg38
I2
sg39
I0
sg40
I238
sg41
I10
sg42
I228
sbsI3
g0
(g33
g2
Ntp2761
Rp2762
(dp2763
g37
I10
sg38
I3
sg39
I0
sg40
I239
sg41
I10
sg42
I228
sbssg49
(dp2764
sbssI222
(dp2765
g15
g0
(g18
g2
Ntp2766
Rp2767
(dp2768
g22
(lp2769
sg24
S'ovs-sw229'
p2770
sg26
Nsg27
I229
sg28
Nsg29
Nsg30
Nsg31
(dp2771
I0
g2650
sI1
g2664
sI2
g0
(g33
g2
Ntp2772
Rp2773
(dp2774
g37
I10
sg38
I2
sg39
I0
sg40
I240
sg41
I10
sg42
I229
sbsI3
g0
(g33
g2
Ntp2775
Rp2776
(dp2777
g37
I10
sg38
I3
sg39
I0
sg40
I241
sg41
I10
sg42
I229
sbssg49
(dp2778
sbssI223
(dp2779
g15
g0
(g18
g2
Ntp2780
Rp2781
(dp2782
g22
(lp2783
sg24
S'ovs-sw230'
p2784
sg26
Nsg27
I230
sg28
Nsg29
Nsg30
Nsg31
(dp2785
I0
g2678
sI1
g2689
sI2
g0
(g33
g2
Ntp2786
Rp2787
(dp2788
g37
I10
sg38
I2
sg39
I0
sg40
I242
sg41
I10
sg42
I230
sbsI3
g0
(g33
g2
Ntp2789
Rp2790
(dp2791
g37
I10
sg38
I3
sg39
I0
sg40
I243
sg41
I10
sg42
I230
sbssg49
(dp2792
sbssI224
(dp2793
g15
g0
(g18
g2
Ntp2794
Rp2795
(dp2796
g22
(lp2797
sg24
S'ovs-sw231'
p2798
sg26
Nsg27
I231
sg28
Nsg29
Nsg30
Nsg31
(dp2799
I0
g2675
sI1
g2692
sI2
g0
(g33
g2
Ntp2800
Rp2801
(dp2802
g37
I10
sg38
I2
sg39
I0
sg40
I244
sg41
I10
sg42
I231
sbsI3
g0
(g33
g2
Ntp2803
Rp2804
(dp2805
g37
I10
sg38
I3
sg39
I0
sg40
I245
sg41
I10
sg42
I231
sbssg49
(dp2806
sbssI225
(dp2807
g15
g0
(g18
g2
Ntp2808
Rp2809
(dp2810
g22
(lp2811
sg24
S'ovs-sw232'
p2812
sg26
Nsg27
I232
sg28
Nsg29
Nsg30
Nsg31
(dp2813
I0
g2703
sI1
g2717
sI2
g0
(g33
g2
Ntp2814
Rp2815
(dp2816
g37
I10
sg38
I2
sg39
I0
sg40
I246
sg41
I10
sg42
I232
sbsI3
g0
(g33
g2
Ntp2817
Rp2818
(dp2819
g37
I10
sg38
I3
sg39
I0
sg40
I247
sg41
I10
sg42
I232
sbssg49
(dp2820
sbssI226
(dp2821
g15
g0
(g18
g2
Ntp2822
Rp2823
(dp2824
g22
(lp2825
sg24
S'ovs-sw233'
p2826
sg26
Nsg27
I233
sg28
Nsg29
Nsg30
Nsg31
(dp2827
I0
g2706
sI1
g2720
sI2
g0
(g33
g2
Ntp2828
Rp2829
(dp2830
g37
I10
sg38
I2
sg39
I0
sg40
I248
sg41
I10
sg42
I233
sbsI3
g0
(g33
g2
Ntp2831
Rp2832
(dp2833
g37
I10
sg38
I3
sg39
I0
sg40
I249
sg41
I10
sg42
I233
sbssg49
(dp2834
sbssI227
(dp2835
g15
g0
(g18
g2
Ntp2836
Rp2837
(dp2838
g22
(lp2839
sg24
S'ovs-sw234'
p2840
sg26
Nsg27
I234
sg28
Nsg29
Nsg30
Nsg31
(dp2841
I0
g2731
ssg49
(dp2842
sbssI228
(dp2843
g15
g0
(g18
g2
Ntp2844
Rp2845
(dp2846
g22
(lp2847
sg24
S'ovs-sw235'
p2848
sg26
Nsg27
I235
sg28
Nsg29
Nsg30
Nsg31
(dp2849
I0
g2734
ssg49
(dp2850
sbssI229
(dp2851
g15
g0
(g18
g2
Ntp2852
Rp2853
(dp2854
g22
(lp2855
sg24
S'ovs-sw236'
p2856
sg26
Nsg27
I236
sg28
Nsg29
Nsg30
Nsg31
(dp2857
I0
g2745
ssg49
(dp2858
sbssI230
(dp2859
g15
g0
(g18
g2
Ntp2860
Rp2861
(dp2862
g22
(lp2863
sg24
S'ovs-sw237'
p2864
sg26
Nsg27
I237
sg28
Nsg29
Nsg30
Nsg31
(dp2865
I0
g2748
ssg49
(dp2866
sbssI231
(dp2867
g15
g0
(g18
g2
Ntp2868
Rp2869
(dp2870
g22
(lp2871
sg24
S'ovs-sw238'
p2872
sg26
Nsg27
I238
sg28
Nsg29
Nsg30
Nsg31
(dp2873
I0
g2759
ssg49
(dp2874
sbssI232
(dp2875
g15
g0
(g18
g2
Ntp2876
Rp2877
(dp2878
g22
(lp2879
sg24
S'ovs-sw239'
p2880
sg26
Nsg27
I239
sg28
Nsg29
Nsg30
Nsg31
(dp2881
I0
g2762
ssg49
(dp2882
sbssI233
(dp2883
g15
g0
(g18
g2
Ntp2884
Rp2885
(dp2886
g22
(lp2887
sg24
S'ovs-sw240'
p2888
sg26
Nsg27
I240
sg28
Nsg29
Nsg30
Nsg31
(dp2889
I0
g2773
ssg49
(dp2890
sbssI234
(dp2891
g15
g0
(g18
g2
Ntp2892
Rp2893
(dp2894
g22
(lp2895
sg24
S'ovs-sw241'
p2896
sg26
Nsg27
I241
sg28
Nsg29
Nsg30
Nsg31
(dp2897
I0
g2776
ssg49
(dp2898
sbssI235
(dp2899
g15
g0
(g18
g2
Ntp2900
Rp2901
(dp2902
g22
(lp2903
sg24
S'ovs-sw242'
p2904
sg26
Nsg27
I242
sg28
Nsg29
Nsg30
Nsg31
(dp2905
I0
g2787
ssg49
(dp2906
sbssI236
(dp2907
g15
g0
(g18
g2
Ntp2908
Rp2909
(dp2910
g22
(lp2911
sg24
S'ovs-sw243'
p2912
sg26
Nsg27
I243
sg28
Nsg29
Nsg30
Nsg31
(dp2913
I0
g2790
ssg49
(dp2914
sbssI237
(dp2915
g15
g0
(g18
g2
Ntp2916
Rp2917
(dp2918
g22
(lp2919
sg24
S'ovs-sw244'
p2920
sg26
Nsg27
I244
sg28
Nsg29
Nsg30
Nsg31
(dp2921
I0
g2801
ssg49
(dp2922
sbssI238
(dp2923
g15
g0
(g18
g2
Ntp2924
Rp2925
(dp2926
g22
(lp2927
sg24
S'ovs-sw245'
p2928
sg26
Nsg27
I245
sg28
Nsg29
Nsg30
Nsg31
(dp2929
I0
g2804
ssg49
(dp2930
sbssI239
(dp2931
g15
g0
(g18
g2
Ntp2932
Rp2933
(dp2934
g22
(lp2935
sg24
S'ovs-sw246'
p2936
sg26
Nsg27
I246
sg28
Nsg29
Nsg30
Nsg31
(dp2937
I0
g2815
ssg49
(dp2938
sbssI240
(dp2939
g15
g0
(g18
g2
Ntp2940
Rp2941
(dp2942
g22
(lp2943
sg24
S'ovs-sw247'
p2944
sg26
Nsg27
I247
sg28
Nsg29
Nsg30
Nsg31
(dp2945
I0
g2818
ssg49
(dp2946
sbssI241
(dp2947
g15
g0
(g18
g2
Ntp2948
Rp2949
(dp2950
g22
(lp2951
sg24
S'ovs-sw248'
p2952
sg26
Nsg27
I248
sg28
Nsg29
Nsg30
Nsg31
(dp2953
I0
g2829
ssg49
(dp2954
sbssI242
(dp2955
g15
g0
(g18
g2
Ntp2956
Rp2957
(dp2958
g22
(lp2959
sg24
S'ovs-sw249'
p2960
sg26
Nsg27
I249
sg28
Nsg29
Nsg30
Nsg31
(dp2961
I0
g2832
ssg49
(dp2962
sbssI243
(dp2963
g15
g0
(g18
g2
Ntp2964
Rp2965
(dp2966
g22
(lp2967
sg24
S'ovs-sw250'
p2968
sg26
Nsg27
I250
sg28
Nsg29
Nsg30
Nsg31
(dp2969
I0
g181
sI1
g0
(g33
g2
Ntp2970
Rp2971
(dp2972
g37
I10
sg38
I1
sg39
I1
sg40
I251
sg41
I10
sg42
I250
sbsI2
g0
(g33
g2
Ntp2973
Rp2974
(dp2975
g37
I10
sg38
I2
sg39
I0
sg40
I252
sg41
I10
sg42
I250
sbssg49
(dp2976
sbssI244
(dp2977
g15
g0
(g18
g2
Ntp2978
Rp2979
(dp2980
g22
(lp2981
sg24
S'ovs-sw251'
p2982
sg26
Nsg27
I251
sg28
Nsg29
Nsg30
Nsg31
(dp2983
I0
g184
sI1
g2971
sI2
g0
(g33
g2
Ntp2984
Rp2985
(dp2986
g37
I10
sg38
I2
sg39
I0
sg40
I259
sg41
I10
sg42
I251
sbssg49
(dp2987
sbssI245
(dp2988
g15
g0
(g18
g2
Ntp2989
Rp2990
(dp2991
g22
(lp2992
sg24
S'ovs-sw252'
p2993
sg26
Nsg27
I252
sg28
Nsg29
Nsg30
Nsg31
(dp2994
I0
g2974
sI1
g0
(g33
g2
Ntp2995
Rp2996
(dp2997
g37
I10
sg38
I1
sg39
I0
sg40
I253
sg41
I10
sg42
I252
sbsI2
g0
(g33
g2
Ntp2998
Rp2999
(dp3000
g37
I10
sg38
I2
sg39
I0
sg40
I254
sg41
I10
sg42
I252
sbssg49
(dp3001
sbssI246
(dp3002
g15
g0
(g18
g2
Ntp3003
Rp3004
(dp3005
g22
(lp3006
sg24
S'ovs-sw253'
p3007
sg26
Nsg27
I253
sg28
Nsg29
Nsg30
Nsg31
(dp3008
I0
g2996
sI1
g0
(g33
g2
Ntp3009
Rp3010
(dp3011
g37
I10
sg38
I1
sg39
I0
sg40
I255
sg41
I10
sg42
I253
sbssg49
(dp3012
sbssI247
(dp3013
g15
g0
(g18
g2
Ntp3014
Rp3015
(dp3016
g22
(lp3017
sg24
S'ovs-sw254'
p3018
sg26
Nsg27
I254
sg28
Nsg29
Nsg30
Nsg31
(dp3019
I0
g2999
sI1
g0
(g33
g2
Ntp3020
Rp3021
(dp3022
g37
I10
sg38
I1
sg39
I0
sg40
I256
sg41
I10
sg42
I254
sbssg49
(dp3023
sbssI248
(dp3024
g15
g0
(g18
g2
Ntp3025
Rp3026
(dp3027
g22
(lp3028
sg24
S'ovs-sw255'
p3029
sg26
Nsg27
I255
sg28
Nsg29
Nsg30
Nsg31
(dp3030
I0
g3010
sI1
g0
(g33
g2
Ntp3031
Rp3032
(dp3033
g37
I10
sg38
I1
sg39
I0
sg40
I257
sg41
I10
sg42
I255
sbssg49
(dp3034
sbssI249
(dp3035
g15
g0
(g18
g2
Ntp3036
Rp3037
(dp3038
g22
(lp3039
sg24
S'ovs-sw256'
p3040
sg26
Nsg27
I256
sg28
Nsg29
Nsg30
Nsg31
(dp3041
I0
g3021
sI1
g0
(g33
g2
Ntp3042
Rp3043
(dp3044
g37
I10
sg38
I1
sg39
I0
sg40
I258
sg41
I10
sg42
I256
sbssg49
(dp3045
sbssI250
(dp3046
g15
g0
(g18
g2
Ntp3047
Rp3048
(dp3049
g22
(lp3050
sg24
S'ovs-sw257'
p3051
sg26
Nsg27
I257
sg28
Nsg29
Nsg30
Nsg31
(dp3052
I0
g3032
ssg49
(dp3053
sbssI251
(dp3054
g15
g0
(g18
g2
Ntp3055
Rp3056
(dp3057
g22
(lp3058
sg24
S'ovs-sw258'
p3059
sg26
Nsg27
I258
sg28
Nsg29
Nsg30
Nsg31
(dp3060
I0
g3043
ssg49
(dp3061
sbssI252
(dp3062
g15
g0
(g18
g2
Ntp3063
Rp3064
(dp3065
g22
(lp3066
sg24
S'ovs-sw259'
p3067
sg26
Nsg27
I259
sg28
Nsg29
Nsg30
Nsg31
(dp3068
I0
g2985
sI1
g0
(g33
g2
Ntp3069
Rp3070
(dp3071
g37
I10
sg38
I1
sg39
I0
sg40
I260
sg41
I10
sg42
I259
sbsI2
g0
(g33
g2
Ntp3072
Rp3073
(dp3074
g37
I10
sg38
I2
sg39
I0
sg40
I261
sg41
I10
sg42
I259
sbssg49
(dp3075
sbssI253
(dp3076
g15
g0
(g18
g2
Ntp3077
Rp3078
(dp3079
g22
(lp3080
sg24
S'ovs-sw260'
p3081
sg26
Nsg27
I260
sg28
Nsg29
Nsg30
Nsg31
(dp3082
I0
g3070
sI1
g0
(g33
g2
Ntp3083
Rp3084
(dp3085
g37
I10
sg38
I1
sg39
I0
sg40
I262
sg41
I10
sg42
I260
sbssg49
(dp3086
sbssI254
(dp3087
g15
g0
(g18
g2
Ntp3088
Rp3089
(dp3090
g22
(lp3091
sg24
S'ovs-sw261'
p3092
sg26
Nsg27
I261
sg28
Nsg29
Nsg30
Nsg31
(dp3093
I0
g3073
sI1
g0
(g33
g2
Ntp3094
Rp3095
(dp3096
g37
I10
sg38
I1
sg39
I0
sg40
I263
sg41
I10
sg42
I261
sbssg49
(dp3097
sbssI255
(dp3098
g15
g0
(g18
g2
Ntp3099
Rp3100
(dp3101
g22
(lp3102
sg24
S'ovs-sw262'
p3103
sg26
Nsg27
I262
sg28
Nsg29
Nsg30
Nsg31
(dp3104
I0
g3084
sI1
g0
(g33
g2
Ntp3105
Rp3106
(dp3107
g37
I10
sg38
I1
sg39
I0
sg40
I264
sg41
I10
sg42
I262
sbssg49
(dp3108
sbssI256
(dp3109
g15
g0
(g18
g2
Ntp3110
Rp3111
(dp3112
g22
(lp3113
sg24
S'ovs-sw263'
p3114
sg26
Nsg27
I263
sg28
Nsg29
Nsg30
Nsg31
(dp3115
I0
g3095
sI1
g0
(g33
g2
Ntp3116
Rp3117
(dp3118
g37
I10
sg38
I1
sg39
I0
sg40
I265
sg41
I10
sg42
I263
sbssg49
(dp3119
sbssI257
(dp3120
g15
g0
(g18
g2
Ntp3121
Rp3122
(dp3123
g22
(lp3124
sg24
S'ovs-sw264'
p3125
sg26
Nsg27
I264
sg28
Nsg29
Nsg30
Nsg31
(dp3126
I0
g3106
ssg49
(dp3127
sbssI258
(dp3128
g15
g0
(g18
g2
Ntp3129
Rp3130
(dp3131
g22
(lp3132
sg24
S'ovs-sw265'
p3133
sg26
Nsg27
I265
sg28
Nsg29
Nsg30
Nsg31
(dp3134
I0
g3117
ssg49
(dp3135
sbssI259
(dp3136
g15
g0
(g18
g2
Ntp3137
Rp3138
(dp3139
g22
(lp3140
sg24
S'ovs-sw266'
p3141
sg26
Nsg27
I266
sg28
Nsg29
Nsg30
Nsg31
(dp3142
I0
g201
sI1
g0
(g33
g2
Ntp3143
Rp3144
(dp3145
g37
I10
sg38
I1
sg39
I1
sg40
I267
sg41
I1
sg42
I266
sbsI2
g0
(g33
g2
Ntp3146
Rp3147
(dp3148
g37
I10
sg38
I2
sg39
I0
sg40
I270
sg41
I1
sg42
I266
sbssg49
(dp3149
sbssI260
(dp3150
g15
g0
(g18
g2
Ntp3151
Rp3152
(dp3153
g22
(lp3154
sg24
S'ovs-sw267'
p3155
sg26
Nsg27
I267
sg28
Nsg29
Nsg30
Nsg31
(dp3156
I0
g198
sI1
g3144
sI2
g0
(g33
g2
Ntp3157
Rp3158
(dp3159
g37
I10
sg38
I2
sg39
I0
sg40
I271
sg41
I1
sg42
I267
sbssg49
(dp3160
sbssI261
(dp3161
g15
g0
(g18
g2
Ntp3162
Rp3163
(dp3164
g22
(lp3165
sg24
S'ovs-sw268'
p3166
sg26
Nsg27
I268
sg28
Nsg29
Nsg30
Nsg31
(dp3167
I0
g0
(g33
g2
Ntp3168
Rp3169
(dp3170
g37
I10
sg38
I0
sg39
I1
sg40
I270
sg41
I1
sg42
I268
sbssg49
(dp3171
sbssI262
(dp3172
g15
g0
(g18
g2
Ntp3173
Rp3174
(dp3175
g22
(lp3176
sg24
S'ovs-sw269'
p3177
sg26
Nsg27
I269
sg28
Nsg29
Nsg30
Nsg31
(dp3178
I0
g0
(g33
g2
Ntp3179
Rp3180
(dp3181
g37
I10
sg38
I0
sg39
I2
sg40
I270
sg41
I1
sg42
I269
sbssg49
(dp3182
sbssI263
(dp3183
g15
g0
(g18
g2
Ntp3184
Rp3185
(dp3186
g22
(lp3187
sg24
S'ovs-sw270'
p3188
sg26
Nsg27
I270
sg28
Nsg29
Nsg30
Nsg31
(dp3189
I0
g3147
sI1
g3169
sI2
g3180
ssg49
(dp3190
sbssI264
(dp3191
g15
g0
(g18
g2
Ntp3192
Rp3193
(dp3194
g22
(lp3195
sg24
S'ovs-sw271'
p3196
sg26
Nsg27
I271
sg28
Nsg29
Nsg30
Nsg31
(dp3197
I0
g3158
sI1
g0
(g33
g2
Ntp3198
Rp3199
(dp3200
g37
I10
sg38
I1
sg39
I0
sg40
I272
sg41
I1
sg42
I271
sbsI2
g0
(g33
g2
Ntp3201
Rp3202
(dp3203
g37
I10
sg38
I2
sg39
I0
sg40
I273
sg41
I1
sg42
I271
sbssg49
(dp3204
sbssI265
(dp3205
g15
g0
(g18
g2
Ntp3206
Rp3207
(dp3208
g22
(lp3209
sg24
S'ovs-sw272'
p3210
sg26
Nsg27
I272
sg28
Nsg29
Nsg30
Nsg31
(dp3211
I0
g3199
ssg49
(dp3212
sbssI266
(dp3213
g15
g0
(g18
g2
Ntp3214
Rp3215
(dp3216
g22
(lp3217
sg24
S'ovs-sw273'
p3218
sg26
Nsg27
I273
sg28
Nsg29
Nsg30
Nsg31
(dp3219
I0
g3202
ssg49
(dp3220
sbssI267
(dp3221
g15
g0
(g18
g2
Ntp3222
Rp3223
(dp3224
g22
(lp3225
sg24
S'ovs-sw274'
p3226
sg26
Nsg27
I274
sg28
Nsg29
Nsg30
Nsg31
(dp3227
I0
g212
sI1
g0
(g33
g2
Ntp3228
Rp3229
(dp3230
g37
I10
sg38
I1
sg39
I1
sg40
I275
sg41
I10
sg42
I274
sbsI2
g0
(g33
g2
Ntp3231
Rp3232
(dp3233
g37
I10
sg38
I2
sg39
I0
sg40
I276
sg41
I10
sg42
I274
sbsI3
g0
(g33
g2
Ntp3234
Rp3235
(dp3236
g37
I10
sg38
I3
sg39
I0
sg40
I277
sg41
I10
sg42
I274
sbsI4
g0
(g33
g2
Ntp3237
Rp3238
(dp3239
g37
I10
sg38
I4
sg39
I0
sg40
I278
sg41
I10
sg42
I274
sbsI5
g0
(g33
g2
Ntp3240
Rp3241
(dp3242
g37
I10
sg38
I5
sg39
I0
sg40
I279
sg41
I10
sg42
I274
sbssg49
(dp3243
sbssI268
(dp3244
g15
g0
(g18
g2
Ntp3245
Rp3246
(dp3247
g22
(lp3248
sg24
S'ovs-sw275'
p3249
sg26
Nsg27
I275
sg28
Nsg29
Nsg30
Nsg31
(dp3250
I0
g215
sI1
g3229
sI2
g0
(g33
g2
Ntp3251
Rp3252
(dp3253
g37
I10
sg38
I2
sg39
I0
sg40
I312
sg41
I10
sg42
I275
sbsI3
g0
(g33
g2
Ntp3254
Rp3255
(dp3256
g37
I10
sg38
I3
sg39
I0
sg40
I313
sg41
I10
sg42
I275
sbsI4
g0
(g33
g2
Ntp3257
Rp3258
(dp3259
g37
I10
sg38
I4
sg39
I0
sg40
I314
sg41
I10
sg42
I275
sbsI5
g0
(g33
g2
Ntp3260
Rp3261
(dp3262
g37
I10
sg38
I5
sg39
I0
sg40
I315
sg41
I10
sg42
I275
sbssg49
(dp3263
sbssI269
(dp3264
g15
g0
(g18
g2
Ntp3265
Rp3266
(dp3267
g22
(lp3268
sg24
S'ovs-sw276'
p3269
sg26
Nsg27
I276
sg28
Nsg29
Nsg30
Nsg31
(dp3270
I0
g3232
sI1
g0
(g33
g2
Ntp3271
Rp3272
(dp3273
g37
I10
sg38
I1
sg39
I0
sg40
I280
sg41
I10
sg42
I276
sbsI2
g0
(g33
g2
Ntp3274
Rp3275
(dp3276
g37
I10
sg38
I2
sg39
I0
sg40
I282
sg41
I10
sg42
I276
sbsI3
g0
(g33
g2
Ntp3277
Rp3278
(dp3279
g37
I10
sg38
I3
sg39
I0
sg40
I284
sg41
I10
sg42
I276
sbsI4
g0
(g33
g2
Ntp3280
Rp3281
(dp3282
g37
I10
sg38
I4
sg39
I0
sg40
I286
sg41
I10
sg42
I276
sbssg49
(dp3283
sbssI270
(dp3284
g15
g0
(g18
g2
Ntp3285
Rp3286
(dp3287
g22
(lp3288
sg24
S'ovs-sw277'
p3289
sg26
Nsg27
I277
sg28
Nsg29
Nsg30
Nsg31
(dp3290
I0
g3235
sI1
g0
(g33
g2
Ntp3291
Rp3292
(dp3293
g37
I10
sg38
I1
sg39
I1
sg40
I280
sg41
I10
sg42
I277
sbsI2
g0
(g33
g2
Ntp3294
Rp3295
(dp3296
g37
I10
sg38
I2
sg39
I1
sg40
I282
sg41
I10
sg42
I277
sbsI3
g0
(g33
g2
Ntp3297
Rp3298
(dp3299
g37
I10
sg38
I3
sg39
I1
sg40
I284
sg41
I10
sg42
I277
sbsI4
g0
(g33
g2
Ntp3300
Rp3301
(dp3302
g37
I10
sg38
I4
sg39
I1
sg40
I286
sg41
I10
sg42
I277
sbssg49
(dp3303
sbssI271
(dp3304
g15
g0
(g18
g2
Ntp3305
Rp3306
(dp3307
g22
(lp3308
sg24
S'ovs-sw278'
p3309
sg26
Nsg27
I278
sg28
Nsg29
Nsg30
Nsg31
(dp3310
I0
g3238
sI1
g0
(g33
g2
Ntp3311
Rp3312
(dp3313
g37
I10
sg38
I1
sg39
I0
sg40
I281
sg41
I10
sg42
I278
sbsI2
g0
(g33
g2
Ntp3314
Rp3315
(dp3316
g37
I10
sg38
I2
sg39
I0
sg40
I283
sg41
I10
sg42
I278
sbsI3
g0
(g33
g2
Ntp3317
Rp3318
(dp3319
g37
I10
sg38
I3
sg39
I0
sg40
I285
sg41
I10
sg42
I278
sbsI4
g0
(g33
g2
Ntp3320
Rp3321
(dp3322
g37
I10
sg38
I4
sg39
I0
sg40
I287
sg41
I10
sg42
I278
sbssg49
(dp3323
sbssI272
(dp3324
g15
g0
(g18
g2
Ntp3325
Rp3326
(dp3327
g22
(lp3328
sg24
S'ovs-sw279'
p3329
sg26
Nsg27
I279
sg28
Nsg29
Nsg30
Nsg31
(dp3330
I0
g3241
sI1
g0
(g33
g2
Ntp3331
Rp3332
(dp3333
g37
I10
sg38
I1
sg39
I1
sg40
I281
sg41
I10
sg42
I279
sbsI2
g0
(g33
g2
Ntp3334
Rp3335
(dp3336
g37
I10
sg38
I2
sg39
I1
sg40
I283
sg41
I10
sg42
I279
sbsI3
g0
(g33
g2
Ntp3337
Rp3338
(dp3339
g37
I10
sg38
I3
sg39
I1
sg40
I285
sg41
I10
sg42
I279
sbsI4
g0
(g33
g2
Ntp3340
Rp3341
(dp3342
g37
I10
sg38
I4
sg39
I1
sg40
I287
sg41
I10
sg42
I279
sbssg49
(dp3343
sbssI273
(dp3344
g15
g0
(g18
g2
Ntp3345
Rp3346
(dp3347
g22
(lp3348
sg24
S'ovs-sw280'
p3349
sg26
Nsg27
I280
sg28
Nsg29
Nsg30
Nsg31
(dp3350
I0
g3272
sI1
g3292
sI2
g0
(g33
g2
Ntp3351
Rp3352
(dp3353
g37
I10
sg38
I2
sg39
I0
sg40
I288
sg41
I10
sg42
I280
sbsI3
g0
(g33
g2
Ntp3354
Rp3355
(dp3356
g37
I10
sg38
I3
sg39
I0
sg40
I289
sg41
I10
sg42
I280
sbssg49
(dp3357
sbssI274
(dp3358
g15
g0
(g18
g2
Ntp3359
Rp3360
(dp3361
g22
(lp3362
sg24
S'ovs-sw281'
p3363
sg26
Nsg27
I281
sg28
Nsg29
Nsg30
Nsg31
(dp3364
I0
g3312
sI1
g3332
sI2
g0
(g33
g2
Ntp3365
Rp3366
(dp3367
g37
I10
sg38
I2
sg39
I1
sg40
I288
sg41
I10
sg42
I281
sbsI3
g0
(g33
g2
Ntp3368
Rp3369
(dp3370
g37
I10
sg38
I3
sg39
I1
sg40
I289
sg41
I10
sg42
I281
sbssg49
(dp3371
sbssI275
(dp3372
g15
g0
(g18
g2
Ntp3373
Rp3374
(dp3375
g22
(lp3376
sg24
S'ovs-sw282'
p3377
sg26
Nsg27
I282
sg28
Nsg29
Nsg30
Nsg31
(dp3378
I0
g3275
sI1
g3295
sI2
g0
(g33
g2
Ntp3379
Rp3380
(dp3381
g37
I10
sg38
I2
sg39
I0
sg40
I290
sg41
I10
sg42
I282
sbsI3
g0
(g33
g2
Ntp3382
Rp3383
(dp3384
g37
I10
sg38
I3
sg39
I0
sg40
I291
sg41
I10
sg42
I282
sbssg49
(dp3385
sbssI276
(dp3386
g15
g0
(g18
g2
Ntp3387
Rp3388
(dp3389
g22
(lp3390
sg24
S'ovs-sw283'
p3391
sg26
Nsg27
I283
sg28
Nsg29
Nsg30
Nsg31
(dp3392
I0
g3315
sI1
g3335
sI2
g0
(g33
g2
Ntp3393
Rp3394
(dp3395
g37
I10
sg38
I2
sg39
I1
sg40
I290
sg41
I10
sg42
I283
sbsI3
g0
(g33
g2
Ntp3396
Rp3397
(dp3398
g37
I10
sg38
I3
sg39
I1
sg40
I291
sg41
I10
sg42
I283
sbssg49
(dp3399
sbssI277
(dp3400
g15
g0
(g18
g2
Ntp3401
Rp3402
(dp3403
g22
(lp3404
sg24
S'ovs-sw284'
p3405
sg26
Nsg27
I284
sg28
Nsg29
Nsg30
Nsg31
(dp3406
I0
g3278
sI1
g3298
sI2
g0
(g33
g2
Ntp3407
Rp3408
(dp3409
g37
I10
sg38
I2
sg39
I0
sg40
I292
sg41
I10
sg42
I284
sbsI3
g0
(g33
g2
Ntp3410
Rp3411
(dp3412
g37
I10
sg38
I3
sg39
I0
sg40
I293
sg41
I10
sg42
I284
sbssg49
(dp3413
sbssI278
(dp3414
g15
g0
(g18
g2
Ntp3415
Rp3416
(dp3417
g22
(lp3418
sg24
S'ovs-sw285'
p3419
sg26
Nsg27
I285
sg28
Nsg29
Nsg30
Nsg31
(dp3420
I0
g3318
sI1
g3338
sI2
g0
(g33
g2
Ntp3421
Rp3422
(dp3423
g37
I10
sg38
I2
sg39
I1
sg40
I292
sg41
I10
sg42
I285
sbsI3
g0
(g33
g2
Ntp3424
Rp3425
(dp3426
g37
I10
sg38
I3
sg39
I1
sg40
I293
sg41
I10
sg42
I285
sbssg49
(dp3427
sbssI279
(dp3428
g15
g0
(g18
g2
Ntp3429
Rp3430
(dp3431
g22
(lp3432
sg24
S'ovs-sw286'
p3433
sg26
Nsg27
I286
sg28
Nsg29
Nsg30
Nsg31
(dp3434
I0
g3281
sI1
g3301
sI2
g0
(g33
g2
Ntp3435
Rp3436
(dp3437
g37
I10
sg38
I2
sg39
I0
sg40
I294
sg41
I10
sg42
I286
sbsI3
g0
(g33
g2
Ntp3438
Rp3439
(dp3440
g37
I10
sg38
I3
sg39
I0
sg40
I295
sg41
I10
sg42
I286
sbssg49
(dp3441
sbssI280
(dp3442
g15
g0
(g18
g2
Ntp3443
Rp3444
(dp3445
g22
(lp3446
sg24
S'ovs-sw287'
p3447
sg26
Nsg27
I287
sg28
Nsg29
Nsg30
Nsg31
(dp3448
I0
g3321
sI1
g3341
sI2
g0
(g33
g2
Ntp3449
Rp3450
(dp3451
g37
I10
sg38
I2
sg39
I1
sg40
I295
sg41
I10
sg42
I287
sbsI3
g0
(g33
g2
Ntp3452
Rp3453
(dp3454
g37
I10
sg38
I3
sg39
I1
sg40
I294
sg41
I10
sg42
I287
sbssg49
(dp3455
sbssI281
(dp3456
g15
g0
(g18
g2
Ntp3457
Rp3458
(dp3459
g22
(lp3460
sg24
S'ovs-sw288'
p3461
sg26
Nsg27
I288
sg28
Nsg29
Nsg30
Nsg31
(dp3462
I0
g3352
sI1
g3366
sI2
g0
(g33
g2
Ntp3463
Rp3464
(dp3465
g37
I10
sg38
I2
sg39
I0
sg40
I297
sg41
I10
sg42
I288
sbsI3
g0
(g33
g2
Ntp3466
Rp3467
(dp3468
g37
I10
sg38
I3
sg39
I0
sg40
I296
sg41
I10
sg42
I288
sbssg49
(dp3469
sbssI282
(dp3470
g15
g0
(g18
g2
Ntp3471
Rp3472
(dp3473
g22
(lp3474
sg24
S'ovs-sw289'
p3475
sg26
Nsg27
I289
sg28
Nsg29
Nsg30
Nsg31
(dp3476
I0
g3355
sI1
g3369
sI2
g0
(g33
g2
Ntp3477
Rp3478
(dp3479
g37
I10
sg38
I2
sg39
I0
sg40
I298
sg41
I10
sg42
I289
sbsI3
g0
(g33
g2
Ntp3480
Rp3481
(dp3482
g37
I10
sg38
I3
sg39
I0
sg40
I299
sg41
I10
sg42
I289
sbssg49
(dp3483
sbssI283
(dp3484
g15
g0
(g18
g2
Ntp3485
Rp3486
(dp3487
g22
(lp3488
sg24
S'ovs-sw290'
p3489
sg26
Nsg27
I290
sg28
Nsg29
Nsg30
Nsg31
(dp3490
I0
g3380
sI1
g3394
sI2
g0
(g33
g2
Ntp3491
Rp3492
(dp3493
g37
I10
sg38
I2
sg39
I0
sg40
I300
sg41
I10
sg42
I290
sbsI3
g0
(g33
g2
Ntp3494
Rp3495
(dp3496
g37
I10
sg38
I3
sg39
I0
sg40
I301
sg41
I10
sg42
I290
sbssg49
(dp3497
sbssI284
(dp3498
g15
g0
(g18
g2
Ntp3499
Rp3500
(dp3501
g22
(lp3502
sg24
S'ovs-sw291'
p3503
sg26
Nsg27
I291
sg28
Nsg29
Nsg30
Nsg31
(dp3504
I0
g3383
sI1
g3397
sI2
g0
(g33
g2
Ntp3505
Rp3506
(dp3507
g37
I10
sg38
I2
sg39
I0
sg40
I302
sg41
I10
sg42
I291
sbsI3
g0
(g33
g2
Ntp3508
Rp3509
(dp3510
g37
I10
sg38
I3
sg39
I0
sg40
I303
sg41
I10
sg42
I291
sbssg49
(dp3511
sbssI285
(dp3512
g15
g0
(g18
g2
Ntp3513
Rp3514
(dp3515
g22
(lp3516
sg24
S'ovs-sw292'
p3517
sg26
Nsg27
I292
sg28
Nsg29
Nsg30
Nsg31
(dp3518
I0
g3408
sI1
g3422
sI2
g0
(g33
g2
Ntp3519
Rp3520
(dp3521
g37
I10
sg38
I2
sg39
I0
sg40
I304
sg41
I10
sg42
I292
sbsI3
g0
(g33
g2
Ntp3522
Rp3523
(dp3524
g37
I10
sg38
I3
sg39
I0
sg40
I305
sg41
I10
sg42
I292
sbssg49
(dp3525
sbssI286
(dp3526
g15
g0
(g18
g2
Ntp3527
Rp3528
(dp3529
g22
(lp3530
sg24
S'ovs-sw293'
p3531
sg26
Nsg27
I293
sg28
Nsg29
Nsg30
Nsg31
(dp3532
I0
g3411
sI1
g3425
sI2
g0
(g33
g2
Ntp3533
Rp3534
(dp3535
g37
I10
sg38
I2
sg39
I0
sg40
I306
sg41
I10
sg42
I293
sbsI3
g0
(g33
g2
Ntp3536
Rp3537
(dp3538
g37
I10
sg38
I3
sg39
I0
sg40
I307
sg41
I10
sg42
I293
sbssg49
(dp3539
sbssI287
(dp3540
g15
g0
(g18
g2
Ntp3541
Rp3542
(dp3543
g22
(lp3544
sg24
S'ovs-sw294'
p3545
sg26
Nsg27
I294
sg28
Nsg29
Nsg30
Nsg31
(dp3546
I0
g3436
sI1
g3453
sI2
g0
(g33
g2
Ntp3547
Rp3548
(dp3549
g37
I10
sg38
I2
sg39
I0
sg40
I308
sg41
I10
sg42
I294
sbsI3
g0
(g33
g2
Ntp3550
Rp3551
(dp3552
g37
I10
sg38
I3
sg39
I0
sg40
I309
sg41
I10
sg42
I294
sbssg49
(dp3553
sbssI288
(dp3554
g15
g0
(g18
g2
Ntp3555
Rp3556
(dp3557
g22
(lp3558
sg24
S'ovs-sw295'
p3559
sg26
Nsg27
I295
sg28
Nsg29
Nsg30
Nsg31
(dp3560
I0
g3439
sI1
g3450
sI2
g0
(g33
g2
Ntp3561
Rp3562
(dp3563
g37
I10
sg38
I2
sg39
I0
sg40
I311
sg41
I10
sg42
I295
sbsI3
g0
(g33
g2
Ntp3564
Rp3565
(dp3566
g37
I10
sg38
I3
sg39
I0
sg40
I310
sg41
I10
sg42
I295
sbssg49
(dp3567
sbssI289
(dp3568
g15
g0
(g18
g2
Ntp3569
Rp3570
(dp3571
g22
(lp3572
sg24
S'ovs-sw296'
p3573
sg26
Nsg27
I296
sg28
Nsg29
Nsg30
Nsg31
(dp3574
I0
g3467
ssg49
(dp3575
sbssI290
(dp3576
g15
g0
(g18
g2
Ntp3577
Rp3578
(dp3579
g22
(lp3580
sg24
S'ovs-sw297'
p3581
sg26
Nsg27
I297
sg28
Nsg29
Nsg30
Nsg31
(dp3582
I0
g3464
ssg49
(dp3583
sbssI291
(dp3584
g15
g0
(g18
g2
Ntp3585
Rp3586
(dp3587
g22
(lp3588
sg24
S'ovs-sw298'
p3589
sg26
Nsg27
I298
sg28
Nsg29
Nsg30
Nsg31
(dp3590
I0
g3478
ssg49
(dp3591
sbssI292
(dp3592
g15
g0
(g18
g2
Ntp3593
Rp3594
(dp3595
g22
(lp3596
sg24
S'ovs-sw299'
p3597
sg26
Nsg27
I299
sg28
Nsg29
Nsg30
Nsg31
(dp3598
I0
g3481
ssg49
(dp3599
sbssI293
(dp3600
g15
g0
(g18
g2
Ntp3601
Rp3602
(dp3603
g22
(lp3604
sg24
S'ovs-sw300'
p3605
sg26
Nsg27
I300
sg28
Nsg29
Nsg30
Nsg31
(dp3606
I0
g3492
ssg49
(dp3607
sbssI294
(dp3608
g15
g0
(g18
g2
Ntp3609
Rp3610
(dp3611
g22
(lp3612
sg24
S'ovs-sw301'
p3613
sg26
Nsg27
I301
sg28
Nsg29
Nsg30
Nsg31
(dp3614
I0
g3495
ssg49
(dp3615
sbssI295
(dp3616
g15
g0
(g18
g2
Ntp3617
Rp3618
(dp3619
g22
(lp3620
sg24
S'ovs-sw302'
p3621
sg26
Nsg27
I302
sg28
Nsg29
Nsg30
Nsg31
(dp3622
I0
g3506
ssg49
(dp3623
sbssI296
(dp3624
g15
g0
(g18
g2
Ntp3625
Rp3626
(dp3627
g22
(lp3628
sg24
S'ovs-sw303'
p3629
sg26
Nsg27
I303
sg28
Nsg29
Nsg30
Nsg31
(dp3630
I0
g3509
ssg49
(dp3631
sbssI297
(dp3632
g15
g0
(g18
g2
Ntp3633
Rp3634
(dp3635
g22
(lp3636
sg24
S'ovs-sw304'
p3637
sg26
Nsg27
I304
sg28
Nsg29
Nsg30
Nsg31
(dp3638
I0
g3520
ssg49
(dp3639
sbssI298
(dp3640
g15
g0
(g18
g2
Ntp3641
Rp3642
(dp3643
g22
(lp3644
sg24
S'ovs-sw305'
p3645
sg26
Nsg27
I305
sg28
Nsg29
Nsg30
Nsg31
(dp3646
I0
g3523
ssg49
(dp3647
sbssI299
(dp3648
g15
g0
(g18
g2
Ntp3649
Rp3650
(dp3651
g22
(lp3652
sg24
S'ovs-sw306'
p3653
sg26
Nsg27
I306
sg28
Nsg29
Nsg30
Nsg31
(dp3654
I0
g3534
ssg49
(dp3655
sbssI300
(dp3656
g15
g0
(g18
g2
Ntp3657
Rp3658
(dp3659
g22
(lp3660
sg24
S'ovs-sw307'
p3661
sg26
Nsg27
I307
sg28
Nsg29
Nsg30
Nsg31
(dp3662
I0
g3537
ssg49
(dp3663
sbssI301
(dp3664
g15
g0
(g18
g2
Ntp3665
Rp3666
(dp3667
g22
(lp3668
sg24
S'ovs-sw308'
p3669
sg26
Nsg27
I308
sg28
Nsg29
Nsg30
Nsg31
(dp3670
I0
g3548
ssg49
(dp3671
sbssI302
(dp3672
g15
g0
(g18
g2
Ntp3673
Rp3674
(dp3675
g22
(lp3676
sg24
S'ovs-sw309'
p3677
sg26
Nsg27
I309
sg28
Nsg29
Nsg30
Nsg31
(dp3678
I0
g3551
ssg49
(dp3679
sbssI303
(dp3680
g15
g0
(g18
g2
Ntp3681
Rp3682
(dp3683
g22
(lp3684
sg24
S'ovs-sw310'
p3685
sg26
Nsg27
I310
sg28
Nsg29
Nsg30
Nsg31
(dp3686
I0
g3565
ssg49
(dp3687
sbssI304
(dp3688
g15
g0
(g18
g2
Ntp3689
Rp3690
(dp3691
g22
(lp3692
sg24
S'ovs-sw311'
p3693
sg26
Nsg27
I311
sg28
Nsg29
Nsg30
Nsg31
(dp3694
I0
g3562
ssg49
(dp3695
sbssI305
(dp3696
g15
g0
(g18
g2
Ntp3697
Rp3698
(dp3699
g22
(lp3700
sg24
S'ovs-sw312'
p3701
sg26
Nsg27
I312
sg28
Nsg29
Nsg30
Nsg31
(dp3702
I0
g3252
sI1
g0
(g33
g2
Ntp3703
Rp3704
(dp3705
g37
I10
sg38
I1
sg39
I0
sg40
I320
sg41
I10
sg42
I312
sbsI2
g0
(g33
g2
Ntp3706
Rp3707
(dp3708
g37
I10
sg38
I2
sg39
I0
sg40
I322
sg41
I10
sg42
I312
sbsI3
g0
(g33
g2
Ntp3709
Rp3710
(dp3711
g37
I10
sg38
I3
sg39
I0
sg40
I316
sg41
I10
sg42
I312
sbsI4
g0
(g33
g2
Ntp3712
Rp3713
(dp3714
g37
I10
sg38
I4
sg39
I0
sg40
I318
sg41
I10
sg42
I312
sbssg49
(dp3715
sbssI306
(dp3716
g15
g0
(g18
g2
Ntp3717
Rp3718
(dp3719
g22
(lp3720
sg24
S'ovs-sw313'
p3721
sg26
Nsg27
I313
sg28
Nsg29
Nsg30
Nsg31
(dp3722
I0
g3255
sI1
g0
(g33
g2
Ntp3723
Rp3724
(dp3725
g37
I10
sg38
I1
sg39
I1
sg40
I320
sg41
I10
sg42
I313
sbsI2
g0
(g33
g2
Ntp3726
Rp3727
(dp3728
g37
I10
sg38
I2
sg39
I1
sg40
I322
sg41
I10
sg42
I313
sbsI3
g0
(g33
g2
Ntp3729
Rp3730
(dp3731
g37
I10
sg38
I3
sg39
I1
sg40
I316
sg41
I10
sg42
I313
sbsI4
g0
(g33
g2
Ntp3732
Rp3733
(dp3734
g37
I10
sg38
I4
sg39
I1
sg40
I318
sg41
I10
sg42
I313
sbssg49
(dp3735
sbssI307
(dp3736
g15
g0
(g18
g2
Ntp3737
Rp3738
(dp3739
g22
(lp3740
sg24
S'ovs-sw314'
p3741
sg26
Nsg27
I314
sg28
Nsg29
Nsg30
Nsg31
(dp3742
I0
g3258
sI1
g0
(g33
g2
Ntp3743
Rp3744
(dp3745
g37
I10
sg38
I1
sg39
I0
sg40
I321
sg41
I10
sg42
I314
sbsI2
g0
(g33
g2
Ntp3746
Rp3747
(dp3748
g37
I10
sg38
I2
sg39
I0
sg40
I323
sg41
I10
sg42
I314
sbsI3
g0
(g33
g2
Ntp3749
Rp3750
(dp3751
g37
I10
sg38
I3
sg39
I0
sg40
I317
sg41
I10
sg42
I314
sbsI4
g0
(g33
g2
Ntp3752
Rp3753
(dp3754
g37
I10
sg38
I4
sg39
I0
sg40
I319
sg41
I10
sg42
I314
sbssg49
(dp3755
sbssI308
(dp3756
g15
g0
(g18
g2
Ntp3757
Rp3758
(dp3759
g22
(lp3760
sg24
S'ovs-sw315'
p3761
sg26
Nsg27
I315
sg28
Nsg29
Nsg30
Nsg31
(dp3762
I0
g3261
sI1
g0
(g33
g2
Ntp3763
Rp3764
(dp3765
g37
I10
sg38
I1
sg39
I1
sg40
I321
sg41
I10
sg42
I315
sbsI2
g0
(g33
g2
Ntp3766
Rp3767
(dp3768
g37
I10
sg38
I2
sg39
I1
sg40
I323
sg41
I10
sg42
I315
sbsI3
g0
(g33
g2
Ntp3769
Rp3770
(dp3771
g37
I10
sg38
I3
sg39
I1
sg40
I317
sg41
I10
sg42
I315
sbsI4
g0
(g33
g2
Ntp3772
Rp3773
(dp3774
g37
I10
sg38
I4
sg39
I1
sg40
I319
sg41
I10
sg42
I315
sbssg49
(dp3775
sbssI309
(dp3776
g15
g0
(g18
g2
Ntp3777
Rp3778
(dp3779
g22
(lp3780
sg24
S'ovs-sw316'
p3781
sg26
Nsg27
I316
sg28
Nsg29
Nsg30
Nsg31
(dp3782
I0
g3710
sI1
g3730
sI2
g0
(g33
g2
Ntp3783
Rp3784
(dp3785
g37
I10
sg38
I2
sg39
I0
sg40
I324
sg41
I10
sg42
I316
sbsI3
g0
(g33
g2
Ntp3786
Rp3787
(dp3788
g37
I10
sg38
I3
sg39
I0
sg40
I325
sg41
I10
sg42
I316
sbssg49
(dp3789
sbssI310
(dp3790
g15
g0
(g18
g2
Ntp3791
Rp3792
(dp3793
g22
(lp3794
sg24
S'ovs-sw317'
p3795
sg26
Nsg27
I317
sg28
Nsg29
Nsg30
Nsg31
(dp3796
I0
g3750
sI1
g3770
sI2
g0
(g33
g2
Ntp3797
Rp3798
(dp3799
g37
I10
sg38
I2
sg39
I1
sg40
I324
sg41
I10
sg42
I317
sbsI3
g0
(g33
g2
Ntp3800
Rp3801
(dp3802
g37
I10
sg38
I3
sg39
I1
sg40
I325
sg41
I10
sg42
I317
sbssg49
(dp3803
sbssI311
(dp3804
g15
g0
(g18
g2
Ntp3805
Rp3806
(dp3807
g22
(lp3808
sg24
S'ovs-sw318'
p3809
sg26
Nsg27
I318
sg28
Nsg29
Nsg30
Nsg31
(dp3810
I0
g3713
sI1
g3733
sI2
g0
(g33
g2
Ntp3811
Rp3812
(dp3813
g37
I10
sg38
I2
sg39
I0
sg40
I326
sg41
I10
sg42
I318
sbsI3
g0
(g33
g2
Ntp3814
Rp3815
(dp3816
g37
I10
sg38
I3
sg39
I0
sg40
I327
sg41
I10
sg42
I318
sbssg49
(dp3817
sbssI312
(dp3818
g15
g0
(g18
g2
Ntp3819
Rp3820
(dp3821
g22
(lp3822
sg24
S'ovs-sw319'
p3823
sg26
Nsg27
I319
sg28
Nsg29
Nsg30
Nsg31
(dp3824
I0
g3753
sI1
g3773
sI2
g0
(g33
g2
Ntp3825
Rp3826
(dp3827
g37
I10
sg38
I2
sg39
I1
sg40
I326
sg41
I10
sg42
I319
sbsI3
g0
(g33
g2
Ntp3828
Rp3829
(dp3830
g37
I10
sg38
I3
sg39
I1
sg40
I327
sg41
I10
sg42
I319
sbssg49
(dp3831
sbssI313
(dp3832
g15
g0
(g18
g2
Ntp3833
Rp3834
(dp3835
g22
(lp3836
sg24
S'ovs-sw320'
p3837
sg26
Nsg27
I320
sg28
Nsg29
Nsg30
Nsg31
(dp3838
I0
g3704
sI1
g3724
sI2
g0
(g33
g2
Ntp3839
Rp3840
(dp3841
g37
I10
sg38
I2
sg39
I0
sg40
I328
sg41
I10
sg42
I320
sbsI3
g0
(g33
g2
Ntp3842
Rp3843
(dp3844
g37
I10
sg38
I3
sg39
I0
sg40
I329
sg41
I10
sg42
I320
sbssg49
(dp3845
sbssI314
(dp3846
g15
g0
(g18
g2
Ntp3847
Rp3848
(dp3849
g22
(lp3850
sg24
S'ovs-sw321'
p3851
sg26
Nsg27
I321
sg28
Nsg29
Nsg30
Nsg31
(dp3852
I0
g3744
sI1
g3764
sI2
g0
(g33
g2
Ntp3853
Rp3854
(dp3855
g37
I10
sg38
I2
sg39
I1
sg40
I328
sg41
I10
sg42
I321
sbsI3
g0
(g33
g2
Ntp3856
Rp3857
(dp3858
g37
I10
sg38
I3
sg39
I1
sg40
I329
sg41
I10
sg42
I321
sbssg49
(dp3859
sbssI315
(dp3860
g15
g0
(g18
g2
Ntp3861
Rp3862
(dp3863
g22
(lp3864
sg24
S'ovs-sw322'
p3865
sg26
Nsg27
I322
sg28
Nsg29
Nsg30
Nsg31
(dp3866
I0
g3707
sI1
g3727
sI2
g0
(g33
g2
Ntp3867
Rp3868
(dp3869
g37
I10
sg38
I2
sg39
I0
sg40
I330
sg41
I10
sg42
I322
sbsI3
g0
(g33
g2
Ntp3870
Rp3871
(dp3872
g37
I10
sg38
I3
sg39
I0
sg40
I331
sg41
I10
sg42
I322
sbssg49
(dp3873
sbssI316
(dp3874
g15
g0
(g18
g2
Ntp3875
Rp3876
(dp3877
g22
(lp3878
sg24
S'ovs-sw323'
p3879
sg26
Nsg27
I323
sg28
Nsg29
Nsg30
Nsg31
(dp3880
I0
g3747
sI1
g3767
sI2
g0
(g33
g2
Ntp3881
Rp3882
(dp3883
g37
I10
sg38
I2
sg39
I1
sg40
I331
sg41
I10
sg42
I323
sbsI3
g0
(g33
g2
Ntp3884
Rp3885
(dp3886
g37
I10
sg38
I3
sg39
I1
sg40
I330
sg41
I10
sg42
I323
sbssg49
(dp3887
sbssI317
(dp3888
g15
g0
(g18
g2
Ntp3889
Rp3890
(dp3891
g22
(lp3892
sg24
S'ovs-sw324'
p3893
sg26
Nsg27
I324
sg28
Nsg29
Nsg30
Nsg31
(dp3894
I0
g3784
sI1
g3798
sI2
g0
(g33
g2
Ntp3895
Rp3896
(dp3897
g37
I10
sg38
I2
sg39
I0
sg40
I332
sg41
I10
sg42
I324
sbsI3
g0
(g33
g2
Ntp3898
Rp3899
(dp3900
g37
I10
sg38
I3
sg39
I0
sg40
I333
sg41
I10
sg42
I324
sbssg49
(dp3901
sbssI318
(dp3902
g15
g0
(g18
g2
Ntp3903
Rp3904
(dp3905
g22
(lp3906
sg24
S'ovs-sw325'
p3907
sg26
Nsg27
I325
sg28
Nsg29
Nsg30
Nsg31
(dp3908
I0
g3787
sI1
g3801
sI2
g0
(g33
g2
Ntp3909
Rp3910
(dp3911
g37
I10
sg38
I2
sg39
I0
sg40
I334
sg41
I10
sg42
I325
sbsI3
g0
(g33
g2
Ntp3912
Rp3913
(dp3914
g37
I10
sg38
I3
sg39
I0
sg40
I335
sg41
I10
sg42
I325
sbssg49
(dp3915
sbssI319
(dp3916
g15
g0
(g18
g2
Ntp3917
Rp3918
(dp3919
g22
(lp3920
sg24
S'ovs-sw326'
p3921
sg26
Nsg27
I326
sg28
Nsg29
Nsg30
Nsg31
(dp3922
I0
g3812
sI1
g3826
sI2
g0
(g33
g2
Ntp3923
Rp3924
(dp3925
g37
I10
sg38
I2
sg39
I0
sg40
I336
sg41
I10
sg42
I326
sbsI3
g0
(g33
g2
Ntp3926
Rp3927
(dp3928
g37
I10
sg38
I3
sg39
I0
sg40
I337
sg41
I10
sg42
I326
sbssg49
(dp3929
sbssI320
(dp3930
g15
g0
(g18
g2
Ntp3931
Rp3932
(dp3933
g22
(lp3934
sg24
S'ovs-sw327'
p3935
sg26
Nsg27
I327
sg28
Nsg29
Nsg30
Nsg31
(dp3936
I0
g3815
sI1
g3829
sI2
g0
(g33
g2
Ntp3937
Rp3938
(dp3939
g37
I10
sg38
I2
sg39
I0
sg40
I338
sg41
I10
sg42
I327
sbsI3
g0
(g33
g2
Ntp3940
Rp3941
(dp3942
g37
I10
sg38
I3
sg39
I0
sg40
I339
sg41
I10
sg42
I327
sbssg49
(dp3943
sbssI321
(dp3944
g15
g0
(g18
g2
Ntp3945
Rp3946
(dp3947
g22
(lp3948
sg24
S'ovs-sw328'
p3949
sg26
Nsg27
I328
sg28
Nsg29
Nsg30
Nsg31
(dp3950
I0
g3840
sI1
g3854
sI2
g0
(g33
g2
Ntp3951
Rp3952
(dp3953
g37
I10
sg38
I2
sg39
I0
sg40
I340
sg41
I10
sg42
I328
sbsI3
g0
(g33
g2
Ntp3954
Rp3955
(dp3956
g37
I10
sg38
I3
sg39
I0
sg40
I341
sg41
I10
sg42
I328
sbssg49
(dp3957
sbssI322
(dp3958
g15
g0
(g18
g2
Ntp3959
Rp3960
(dp3961
g22
(lp3962
sg24
S'ovs-sw329'
p3963
sg26
Nsg27
I329
sg28
Nsg29
Nsg30
Nsg31
(dp3964
I0
g3843
sI1
g3857
sI2
g0
(g33
g2
Ntp3965
Rp3966
(dp3967
g37
I10
sg38
I2
sg39
I0
sg40
I342
sg41
I10
sg42
I329
sbsI3
g0
(g33
g2
Ntp3968
Rp3969
(dp3970
g37
I10
sg38
I3
sg39
I0
sg40
I343
sg41
I10
sg42
I329
sbssg49
(dp3971
sbssI323
(dp3972
g15
g0
(g18
g2
Ntp3973
Rp3974
(dp3975
g22
(lp3976
sg24
S'ovs-sw330'
p3977
sg26
Nsg27
I330
sg28
Nsg29
Nsg30
Nsg31
(dp3978
I0
g3868
sI1
g3885
sI2
g0
(g33
g2
Ntp3979
Rp3980
(dp3981
g37
I10
sg38
I2
sg39
I0
sg40
I344
sg41
I10
sg42
I330
sbsI3
g0
(g33
g2
Ntp3982
Rp3983
(dp3984
g37
I10
sg38
I3
sg39
I0
sg40
I345
sg41
I10
sg42
I330
sbssg49
(dp3985
sbssI324
(dp3986
g15
g0
(g18
g2
Ntp3987
Rp3988
(dp3989
g22
(lp3990
sg24
S'ovs-sw331'
p3991
sg26
Nsg27
I331
sg28
Nsg29
Nsg30
Nsg31
(dp3992
I0
g3871
sI1
g3882
sI2
g0
(g33
g2
Ntp3993
Rp3994
(dp3995
g37
I10
sg38
I2
sg39
I0
sg40
I347
sg41
I10
sg42
I331
sbsI3
g0
(g33
g2
Ntp3996
Rp3997
(dp3998
g37
I10
sg38
I3
sg39
I0
sg40
I346
sg41
I10
sg42
I331
sbssg49
(dp3999
sbssI325
(dp4000
g15
g0
(g18
g2
Ntp4001
Rp4002
(dp4003
g22
(lp4004
sg24
S'ovs-sw332'
p4005
sg26
Nsg27
I332
sg28
Nsg29
Nsg30
Nsg31
(dp4006
I0
g3896
ssg49
(dp4007
sbssI326
(dp4008
g15
g0
(g18
g2
Ntp4009
Rp4010
(dp4011
g22
(lp4012
sg24
S'ovs-sw333'
p4013
sg26
Nsg27
I333
sg28
Nsg29
Nsg30
Nsg31
(dp4014
I0
g3899
ssg49
(dp4015
sbssI327
(dp4016
g15
g0
(g18
g2
Ntp4017
Rp4018
(dp4019
g22
(lp4020
sg24
S'ovs-sw334'
p4021
sg26
Nsg27
I334
sg28
Nsg29
Nsg30
Nsg31
(dp4022
I0
g3910
ssg49
(dp4023
sbssI328
(dp4024
g15
g0
(g18
g2
Ntp4025
Rp4026
(dp4027
g22
(lp4028
sg24
S'ovs-sw335'
p4029
sg26
Nsg27
I335
sg28
Nsg29
Nsg30
Nsg31
(dp4030
I0
g3913
ssg49
(dp4031
sbssI329
(dp4032
g15
g0
(g18
g2
Ntp4033
Rp4034
(dp4035
g22
(lp4036
sg24
S'ovs-sw336'
p4037
sg26
Nsg27
I336
sg28
Nsg29
Nsg30
Nsg31
(dp4038
I0
g3924
ssg49
(dp4039
sbssI330
(dp4040
g15
g0
(g18
g2
Ntp4041
Rp4042
(dp4043
g22
(lp4044
sg24
S'ovs-sw337'
p4045
sg26
Nsg27
I337
sg28
Nsg29
Nsg30
Nsg31
(dp4046
I0
g3927
ssg49
(dp4047
sbssI331
(dp4048
g15
g0
(g18
g2
Ntp4049
Rp4050
(dp4051
g22
(lp4052
sg24
S'ovs-sw338'
p4053
sg26
Nsg27
I338
sg28
Nsg29
Nsg30
Nsg31
(dp4054
I0
g3938
ssg49
(dp4055
sbssI332
(dp4056
g15
g0
(g18
g2
Ntp4057
Rp4058
(dp4059
g22
(lp4060
sg24
S'ovs-sw339'
p4061
sg26
Nsg27
I339
sg28
Nsg29
Nsg30
Nsg31
(dp4062
I0
g3941
ssg49
(dp4063
sbssI333
(dp4064
g15
g0
(g18
g2
Ntp4065
Rp4066
(dp4067
g22
(lp4068
sg24
S'ovs-sw340'
p4069
sg26
Nsg27
I340
sg28
Nsg29
Nsg30
Nsg31
(dp4070
I0
g3952
ssg49
(dp4071
sbssI334
(dp4072
g15
g0
(g18
g2
Ntp4073
Rp4074
(dp4075
g22
(lp4076
sg24
S'ovs-sw341'
p4077
sg26
Nsg27
I341
sg28
Nsg29
Nsg30
Nsg31
(dp4078
I0
g3955
ssg49
(dp4079
sbssI335
(dp4080
g15
g0
(g18
g2
Ntp4081
Rp4082
(dp4083
g22
(lp4084
sg24
S'ovs-sw342'
p4085
sg26
Nsg27
I342
sg28
Nsg29
Nsg30
Nsg31
(dp4086
I0
g3966
ssg49
(dp4087
sbssI336
(dp4088
g15
g0
(g18
g2
Ntp4089
Rp4090
(dp4091
g22
(lp4092
sg24
S'ovs-sw343'
p4093
sg26
Nsg27
I343
sg28
Nsg29
Nsg30
Nsg31
(dp4094
I0
g3969
ssg49
(dp4095
sbssI337
(dp4096
g15
g0
(g18
g2
Ntp4097
Rp4098
(dp4099
g22
(lp4100
sg24
S'ovs-sw344'
p4101
sg26
Nsg27
I344
sg28
Nsg29
Nsg30
Nsg31
(dp4102
I0
g3980
ssg49
(dp4103
sbssI338
(dp4104
g15
g0
(g18
g2
Ntp4105
Rp4106
(dp4107
g22
(lp4108
sg24
S'ovs-sw345'
p4109
sg26
Nsg27
I345
sg28
Nsg29
Nsg30
Nsg31
(dp4110
I0
g3983
ssg49
(dp4111
sbssI339
(dp4112
g15
g0
(g18
g2
Ntp4113
Rp4114
(dp4115
g22
(lp4116
sg24
S'ovs-sw346'
p4117
sg26
Nsg27
I346
sg28
Nsg29
Nsg30
Nsg31
(dp4118
I0
g3997
ssg49
(dp4119
sbssI340
(dp4120
g15
g0
(g18
g2
Ntp4121
Rp4122
(dp4123
g22
(lp4124
sg24
S'ovs-sw347'
p4125
sg26
Nsg27
I347
sg28
Nsg29
Nsg30
Nsg31
(dp4126
I0
g3994
ssg49
(dp4127
sbsssS'edge_key_dict_factory'
p4128
c__builtin__
dict
p4129
sS'node_dict_factory'
p4130
g4129
sS'edge_attr_dict_factory'
p4131
g4129
sS'edge'
p4132
(dp4133
I1
(dp4134
I10
(dp4135
I0
(dp4136
S'link'
p4137
g35
sssI12
(dp4138
I0
(dp4139
g4137
g44
sssI13
(dp4140
I0
(dp4141
g4137
g47
ssssI2
(dp4142
I10
(dp4143
I0
(dp4144
g4137
g59
sssI44
(dp4145
I0
(dp4146
g4137
g62
sssI45
(dp4147
I0
(dp4148
g4137
g65
ssssI3
(dp4149
I10
(dp4150
I0
(dp4151
g4137
g76
sssI60
(dp4152
I0
(dp4153
g4137
g79
sssI61
(dp4154
I0
(dp4155
g4137
g82
ssssI4
(dp4156
I10
(dp4157
I0
(dp4158
g4137
g93
sssI67
(dp4159
I0
(dp4160
g4137
g96
sssI68
(dp4161
I0
(dp4162
g4137
g99
ssssI5
(dp4163
I10
(dp4164
I0
(dp4165
g4137
g110
sssI75
(dp4166
I0
(dp4167
g4137
g113
sssI76
(dp4168
I0
(dp4169
g4137
g116
ssssI6
(dp4170
I10
(dp4171
I0
(dp4172
g4137
g127
sssI84
(dp4173
I0
(dp4174
g4137
g133
sssI85
(dp4175
I0
(dp4176
g4137
g130
ssssI7
(dp4177
I10
(dp4178
I0
(dp4179
g4137
g144
sssI158
(dp4180
I0
(dp4181
g4137
g147
sssI159
(dp4182
I0
(dp4183
g4137
g150
ssssI8
(dp4184
I169
(dp4185
I0
(dp4186
g4137
g161
sssI10
(dp4187
I0
(dp4188
g4137
g164
sssI170
(dp4189
I0
(dp4190
g4137
g167
ssssI9
(dp4191
I10
(dp4192
I0
(dp4193
g4137
g178
sssI243
(dp4194
I0
(dp4195
g4137
g181
sssI244
(dp4196
I0
(dp4197
g4137
g184
ssssI10
(dp4198
I1
g4135
sI2
g4143
sI3
g4150
sI4
g4157
sI5
g4164
sI6
g4171
sI7
g4178
sI8
g4187
sI9
g4192
sI11
(dp4199
I0
(dp4200
g4137
g195
sssI259
(dp4201
I0
(dp4202
g4137
g201
sssI260
(dp4203
I0
(dp4204
g4137
g198
ssssI11
(dp4205
I10
g4199
sI267
(dp4206
I0
(dp4207
g4137
g212
sssI268
(dp4208
I0
(dp4209
g4137
g215
ssssI12
(dp4210
I1
g4138
sI26
(dp4211
I0
(dp4212
g4137
g226
sssI27
(dp4213
I0
(dp4214
g4137
g229
sssI28
(dp4215
I0
(dp4216
g4137
g232
sssI13
(dp4217
I0
(dp4218
g4137
g235
ssssI13
(dp4219
I1
g4140
sI42
(dp4220
I0
(dp4221
g4137
g249
sssI43
(dp4222
I0
(dp4223
g4137
g252
sssI12
g4217
sI41
(dp4224
I0
(dp4225
g4137
g246
ssssI14
(dp4226
I26
(dp4227
I0
(dp4228
g4137
g263
sssI23
(dp4229
I0
(dp4230
g4137
g266
ssssI15
(dp4231
I27
(dp4232
I0
(dp4233
g4137
g277
sssI23
(dp4234
I0
(dp4235
g4137
g280
ssssI16
(dp4236
I28
(dp4237
I0
(dp4238
g4137
g291
sssI23
(dp4239
I0
(dp4240
g4137
g294
ssssI17
(dp4241
I24
(dp4242
I0
(dp4243
g4137
g308
sssI26
(dp4244
I0
(dp4245
g4137
g305
ssssI18
(dp4246
I24
(dp4247
I0
(dp4248
g4137
g322
sssI27
(dp4249
I0
(dp4250
g4137
g319
ssssI19
(dp4251
I24
(dp4252
I0
(dp4253
g4137
g336
sssI28
(dp4254
I0
(dp4255
g4137
g333
ssssI20
(dp4256
I25
(dp4257
I0
(dp4258
g4137
g347
sssI26
(dp4259
I0
(dp4260
g4137
g350
ssssI21
(dp4261
I25
(dp4262
I0
(dp4263
g4137
g361
sssI27
(dp4264
I0
(dp4265
g4137
g364
ssssI22
(dp4266
I25
(dp4267
I0
(dp4268
g4137
g375
sssI28
(dp4269
I0
(dp4270
g4137
g378
ssssI23
(dp4271
I16
g4239
sI14
g4229
sI15
g4234
ssI24
(dp4272
I17
g4242
sI18
g4247
sI19
g4252
ssI25
(dp4273
I20
g4257
sI21
g4262
sI22
g4267
ssI26
(dp4274
I17
g4244
sI12
g4211
sI14
g4227
sI20
g4259
ssI27
(dp4275
I18
g4249
sI12
g4213
sI21
g4264
sI15
g4232
ssI28
(dp4276
I16
g4237
sI19
g4254
sI12
g4215
sI22
g4269
ssI29
(dp4277
I41
(dp4278
I0
(dp4279
g4137
g437
sssI38
(dp4280
I0
(dp4281
g4137
g440
ssssI30
(dp4282
I42
(dp4283
I0
(dp4284
g4137
g451
sssI38
(dp4285
I0
(dp4286
g4137
g454
ssssI31
(dp4287
I43
(dp4288
I0
(dp4289
g4137
g465
sssI38
(dp4290
I0
(dp4291
g4137
g468
ssssI32
(dp4292
I41
(dp4293
I0
(dp4294
g4137
g479
sssI39
(dp4295
I0
(dp4296
g4137
g482
ssssI33
(dp4297
I42
(dp4298
I0
(dp4299
g4137
g493
sssI39
(dp4300
I0
(dp4301
g4137
g496
ssssI34
(dp4302
I43
(dp4303
I0
(dp4304
g4137
g507
sssI39
(dp4305
I0
(dp4306
g4137
g510
ssssI35
(dp4307
I40
(dp4308
I0
(dp4309
g4137
g524
sssI41
(dp4310
I0
(dp4311
g4137
g521
ssssI36
(dp4312
I40
(dp4313
I0
(dp4314
g4137
g538
sssI42
(dp4315
I0
(dp4316
g4137
g535
ssssI37
(dp4317
I40
(dp4318
I0
(dp4319
g4137
g552
sssI43
(dp4320
I0
(dp4321
g4137
g549
ssssI38
(dp4322
I29
g4280
sI30
g4285
sI31
g4290
ssI39
(dp4323
I32
g4295
sI33
g4300
sI34
g4305
ssI40
(dp4324
I35
g4308
sI36
g4313
sI37
g4318
ssI41
(dp4325
I32
g4293
sI35
g4310
sI13
g4224
sI29
g4278
ssI42
(dp4326
I33
g4298
sI36
g4315
sI13
g4220
sI30
g4283
ssI43
(dp4327
I34
g4303
sI37
g4320
sI13
g4222
sI31
g4288
ssI44
(dp4328
I2
g4145
sI45
(dp4329
I0
(dp4330
g4137
g611
sssI46
(dp4331
I0
(dp4332
g4137
g614
ssssI45
(dp4333
I2
g4147
sI44
g4329
sI53
(dp4334
I0
(dp4335
g4137
g625
ssssI46
(dp4336
I48
(dp4337
I0
(dp4338
g4137
g639
sssI44
g4331
sI47
(dp4339
I0
(dp4340
g4137
g636
ssssI47
(dp4341
I49
(dp4342
I0
(dp4343
g4137
g650
sssI46
g4339
ssI48
(dp4344
I50
(dp4345
I0
(dp4346
g4137
g661
sssI46
g4337
ssI49
(dp4347
I51
(dp4348
I0
(dp4349
g4137
g672
sssI47
g4342
ssI50
(dp4350
I48
g4345
sI52
(dp4351
I0
(dp4352
g4137
g683
ssssI51
(dp4353
I49
g4348
ssI52
(dp4354
I50
g4351
ssI53
(dp4355
I45
g4334
sI54
(dp4356
I0
(dp4357
g4137
g710
sssI55
(dp4358
I0
(dp4359
g4137
g713
ssssI54
(dp4360
I56
(dp4361
I0
(dp4362
g4137
g724
sssI53
g4356
ssI55
(dp4363
I57
(dp4364
I0
(dp4365
g4137
g735
sssI53
g4358
ssI56
(dp4366
I58
(dp4367
I0
(dp4368
g4137
g746
sssI54
g4361
ssI57
(dp4369
I59
(dp4370
I0
(dp4371
g4137
g757
sssI55
g4364
ssI58
(dp4372
I56
g4367
ssI59
(dp4373
I57
g4370
ssI60
(dp4374
I3
g4152
sI61
(dp4375
I0
(dp4376
g4137
g784
sssI62
(dp4377
I0
(dp4378
g4137
g787
ssssI61
(dp4379
I65
(dp4380
I0
(dp4381
g4137
g798
sssI3
g4154
sI60
g4375
ssI62
(dp4382
I60
g4377
sI63
(dp4383
I0
(dp4384
g4137
g809
ssssI63
(dp4385
I62
g4383
ssI64
(dp4386
I65
(dp4387
I0
(dp4388
g4137
g828
ssssI65
(dp4389
I64
g4387
sI66
(dp4390
I0
(dp4391
g4137
g839
sssI61
g4380
ssI66
(dp4392
I65
g4390
ssI67
(dp4393
I68
(dp4394
I0
(dp4395
g4137
g858
sssI4
g4159
sI71
(dp4396
I0
(dp4397
g4137
g861
ssssI68
(dp4398
I73
(dp4399
I0
(dp4400
g4137
g872
sssI67
g4394
sI4
g4161
ssI69
(dp4401
I71
(dp4402
I0
(dp4403
g4137
g883
ssssI70
(dp4404
I71
(dp4405
I0
(dp4406
g4137
g894
ssssI71
(dp4407
I72
(dp4408
I0
(dp4409
g4137
g905
sssI67
g4396
sI69
g4402
sI70
g4405
ssI72
(dp4410
I71
g4408
ssI73
(dp4411
I74
(dp4412
I0
(dp4413
g4137
g924
sssI68
g4399
ssI74
(dp4414
I73
g4412
ssI75
(dp4415
I76
(dp4416
I0
(dp4417
g4137
g943
sssI5
g4166
sI77
(dp4418
I0
(dp4419
g4137
g946
ssssI76
(dp4420
I83
(dp4421
I0
(dp4422
g4137
g957
sssI75
g4416
sI5
g4168
ssI77
(dp4423
I80
(dp4424
I0
(dp4425
g4137
g974
sssI75
g4418
sI78
(dp4426
I0
(dp4427
g4137
g968
sssI79
(dp4428
I0
(dp4429
g4137
g971
ssssI78
(dp4430
I77
g4426
ssI79
(dp4431
I77
g4428
ssI80
(dp4432
I77
g4424
ssI81
(dp4433
I83
(dp4434
I0
(dp4435
g4137
g1009
ssssI82
(dp4436
I83
(dp4437
I0
(dp4438
g4137
g1020
ssssI83
(dp4439
I81
g4434
sI82
g4437
sI76
g4421
ssI84
(dp4440
I6
g4173
sI85
(dp4441
I0
(dp4442
g4137
g1039
sssI86
(dp4443
I0
(dp4444
g4137
g1042
sssI87
(dp4445
I0
(dp4446
g4137
g1045
sssI88
(dp4447
I0
(dp4448
g4137
g1048
sssI89
(dp4449
I0
(dp4450
g4137
g1051
ssssI85
(dp4451
I6
g4175
sI84
g4441
sI122
(dp4452
I0
(dp4453
g4137
g1071
sssI123
(dp4454
I0
(dp4455
g4137
g1062
sssI124
(dp4456
I0
(dp4457
g4137
g1065
sssI125
(dp4458
I0
(dp4459
g4137
g1068
ssssI86
(dp4460
I96
(dp4461
I0
(dp4462
g4137
g1088
sssI92
(dp4463
I0
(dp4464
g4137
g1082
sssI90
(dp4465
I0
(dp4466
g4137
g1091
sssI84
g4443
sI94
(dp4467
I0
(dp4468
g4137
g1085
ssssI87
(dp4469
I96
(dp4470
I0
(dp4471
g4137
g1108
sssI92
(dp4472
I0
(dp4473
g4137
g1102
sssI90
(dp4474
I0
(dp4475
g4137
g1111
sssI84
g4445
sI94
(dp4476
I0
(dp4477
g4137
g1105
ssssI88
(dp4478
I97
(dp4479
I0
(dp4480
g4137
g1131
sssI91
(dp4481
I0
(dp4482
g4137
g1122
sssI84
g4447
sI93
(dp4483
I0
(dp4484
g4137
g1125
sssI95
(dp4485
I0
(dp4486
g4137
g1128
ssssI89
(dp4487
I97
(dp4488
I0
(dp4489
g4137
g1151
sssI91
(dp4490
I0
(dp4491
g4137
g1142
sssI84
g4449
sI93
(dp4492
I0
(dp4493
g4137
g1145
sssI95
(dp4494
I0
(dp4495
g4137
g1148
ssssI90
(dp4496
I98
(dp4497
I0
(dp4498
g4137
g1165
sssI99
(dp4499
I0
(dp4500
g4137
g1162
sssI86
g4465
sI87
g4474
ssI91
(dp4501
I88
g4481
sI89
g4490
sI98
(dp4502
I0
(dp4503
g4137
g1179
sssI99
(dp4504
I0
(dp4505
g4137
g1176
ssssI92
(dp4506
I100
(dp4507
I0
(dp4508
g4137
g1190
sssI101
(dp4509
I0
(dp4510
g4137
g1193
sssI86
g4463
sI87
g4472
ssI93
(dp4511
I88
g4483
sI89
g4492
sI100
(dp4512
I0
(dp4513
g4137
g1204
sssI101
(dp4514
I0
(dp4515
g4137
g1207
ssssI94
(dp4516
I103
(dp4517
I0
(dp4518
g4137
g1221
sssI102
(dp4519
I0
(dp4520
g4137
g1218
sssI86
g4467
sI87
g4476
ssI95
(dp4521
I88
g4485
sI89
g4494
sI102
(dp4522
I0
(dp4523
g4137
g1232
sssI103
(dp4524
I0
(dp4525
g4137
g1235
ssssI96
(dp4526
I104
(dp4527
I0
(dp4528
g4137
g1246
sssI105
(dp4529
I0
(dp4530
g4137
g1249
sssI86
g4461
sI87
g4470
ssI97
(dp4531
I88
g4479
sI89
g4488
sI104
(dp4532
I0
(dp4533
g4137
g1263
sssI105
(dp4534
I0
(dp4535
g4137
g1260
ssssI98
(dp4536
I107
(dp4537
I0
(dp4538
g4137
g1274
sssI90
g4497
sI91
g4502
sI106
(dp4539
I0
(dp4540
g4137
g1277
ssssI99
(dp4541
I90
g4499
sI91
g4504
sI108
(dp4542
I0
(dp4543
g4137
g1288
sssI109
(dp4544
I0
(dp4545
g4137
g1291
ssssI100
(dp4546
I92
g4507
sI93
g4512
sI110
(dp4547
I0
(dp4548
g4137
g1302
sssI111
(dp4549
I0
(dp4550
g4137
g1305
ssssI101
(dp4551
I112
(dp4552
I0
(dp4553
g4137
g1316
sssI113
(dp4554
I0
(dp4555
g4137
g1319
sssI92
g4509
sI93
g4514
ssI102
(dp4556
I114
(dp4557
I0
(dp4558
g4137
g1333
sssI115
(dp4559
I0
(dp4560
g4137
g1330
sssI94
g4519
sI95
g4522
ssI103
(dp4561
I116
(dp4562
I0
(dp4563
g4137
g1344
sssI117
(dp4564
I0
(dp4565
g4137
g1347
sssI94
g4517
sI95
g4524
ssI104
(dp4566
I96
g4527
sI97
g4532
sI118
(dp4567
I0
(dp4568
g4137
g1358
sssI119
(dp4569
I0
(dp4570
g4137
g1361
ssssI105
(dp4571
I96
g4529
sI97
g4534
sI120
(dp4572
I0
(dp4573
g4137
g1375
sssI121
(dp4574
I0
(dp4575
g4137
g1372
ssssI106
(dp4576
I98
g4539
ssI107
(dp4577
I98
g4537
ssI108
(dp4578
I99
g4542
ssI109
(dp4579
I99
g4544
ssI110
(dp4580
I100
g4547
ssI111
(dp4581
I100
g4549
ssI112
(dp4582
I101
g4552
ssI113
(dp4583
I101
g4554
ssI114
(dp4584
I102
g4557
ssI115
(dp4585
I102
g4559
ssI116
(dp4586
I103
g4562
ssI117
(dp4587
I103
g4564
ssI118
(dp4588
I104
g4567
ssI119
(dp4589
I104
g4569
ssI120
(dp4590
I105
g4572
ssI121
(dp4591
I105
g4574
ssI122
(dp4592
I128
(dp4593
I0
(dp4594
g4137
g1520
sssI130
(dp4595
I0
(dp4596
g4137
g1523
sssI132
(dp4597
I0
(dp4598
g4137
g1514
sssI85
g4452
sI126
(dp4599
I0
(dp4600
g4137
g1517
ssssI123
(dp4601
I128
(dp4602
I0
(dp4603
g4137
g1540
sssI130
(dp4604
I0
(dp4605
g4137
g1543
sssI132
(dp4606
I0
(dp4607
g4137
g1534
sssI85
g4454
sI126
(dp4608
I0
(dp4609
g4137
g1537
ssssI124
(dp4610
I127
(dp4611
I0
(dp4612
g4137
g1560
sssI129
(dp4613
I0
(dp4614
g4137
g1563
sssI131
(dp4615
I0
(dp4616
g4137
g1554
sssI85
g4456
sI133
(dp4617
I0
(dp4618
g4137
g1557
ssssI125
(dp4619
I127
(dp4620
I0
(dp4621
g4137
g1580
sssI129
(dp4622
I0
(dp4623
g4137
g1583
sssI131
(dp4624
I0
(dp4625
g4137
g1574
sssI85
g4458
sI133
(dp4626
I0
(dp4627
g4137
g1577
ssssI126
(dp4628
I122
g4599
sI123
g4608
sI134
(dp4629
I0
(dp4630
g4137
g1594
sssI135
(dp4631
I0
(dp4632
g4137
g1597
ssssI127
(dp4633
I124
g4611
sI125
g4620
sI134
(dp4634
I0
(dp4635
g4137
g1608
sssI135
(dp4636
I0
(dp4637
g4137
g1611
ssssI128
(dp4638
I136
(dp4639
I0
(dp4640
g4137
g1622
sssI137
(dp4641
I0
(dp4642
g4137
g1625
sssI122
g4593
sI123
g4602
ssI129
(dp4643
I136
(dp4644
I0
(dp4645
g4137
g1636
sssI137
(dp4646
I0
(dp4647
g4137
g1639
sssI124
g4613
sI125
g4622
ssI130
(dp4648
I122
g4595
sI123
g4604
sI139
(dp4649
I0
(dp4650
g4137
g1650
sssI138
(dp4651
I0
(dp4652
g4137
g1653
ssssI131
(dp4653
I138
(dp4654
I0
(dp4655
g4137
g1667
sssI139
(dp4656
I0
(dp4657
g4137
g1664
sssI124
g4615
sI125
g4624
ssI132
(dp4658
I122
g4597
sI123
g4606
sI140
(dp4659
I0
(dp4660
g4137
g1678
sssI141
(dp4661
I0
(dp4662
g4137
g1681
ssssI133
(dp4663
I140
(dp4664
I0
(dp4665
g4137
g1695
sssI124
g4617
sI125
g4626
sI141
(dp4666
I0
(dp4667
g4137
g1692
ssssI134
(dp4668
I143
(dp4669
I0
(dp4670
g4137
g1706
sssI142
(dp4671
I0
(dp4672
g4137
g1709
sssI126
g4629
sI127
g4634
ssI135
(dp4673
I144
(dp4674
I0
(dp4675
g4137
g1720
sssI145
(dp4676
I0
(dp4677
g4137
g1723
sssI126
g4631
sI127
g4636
ssI136
(dp4678
I128
g4639
sI129
g4644
sI146
(dp4679
I0
(dp4680
g4137
g1737
sssI147
(dp4681
I0
(dp4682
g4137
g1734
ssssI137
(dp4683
I128
g4641
sI129
g4646
sI148
(dp4684
I0
(dp4685
g4137
g1748
sssI149
(dp4686
I0
(dp4687
g4137
g1751
ssssI138
(dp4688
I130
g4651
sI131
g4654
sI150
(dp4689
I0
(dp4690
g4137
g1762
sssI151
(dp4691
I0
(dp4692
g4137
g1765
ssssI139
(dp4693
I152
(dp4694
I0
(dp4695
g4137
g1776
sssI153
(dp4696
I0
(dp4697
g4137
g1779
sssI130
g4649
sI131
g4656
ssI140
(dp4698
I154
(dp4699
I0
(dp4700
g4137
g1793
sssI155
(dp4701
I0
(dp4702
g4137
g1790
sssI132
g4659
sI133
g4664
ssI141
(dp4703
I156
(dp4704
I0
(dp4705
g4137
g1807
sssI132
g4661
sI133
g4666
sI157
(dp4706
I0
(dp4707
g4137
g1804
ssssI142
(dp4708
I134
g4671
ssI143
(dp4709
I134
g4669
ssI144
(dp4710
I135
g4674
ssI145
(dp4711
I135
g4676
ssI146
(dp4712
I136
g4679
ssI147
(dp4713
I136
g4681
ssI148
(dp4714
I137
g4684
ssI149
(dp4715
I137
g4686
ssI150
(dp4716
I138
g4689
ssI151
(dp4717
I138
g4691
ssI152
(dp4718
I139
g4694
ssI153
(dp4719
I139
g4696
ssI154
(dp4720
I140
g4699
ssI155
(dp4721
I140
g4701
ssI156
(dp4722
I141
g4704
ssI157
(dp4723
I141
g4706
ssI158
(dp4724
I160
(dp4725
I0
(dp4726
g4137
g1949
sssI159
(dp4727
I0
(dp4728
g4137
g1946
sssI7
g4180
ssI159
(dp4729
I167
(dp4730
I0
(dp4731
g4137
g1960
sssI158
g4727
sI7
g4182
ssI160
(dp4732
I161
(dp4733
I0
(dp4734
g4137
g1977
sssI162
(dp4735
I0
(dp4736
g4137
g1980
sssI164
(dp4737
I0
(dp4738
g4137
g1971
sssI166
(dp4739
I0
(dp4740
g4137
g1974
sssI158
g4725
ssI161
(dp4741
I160
g4733
ssI162
(dp4742
I160
g4735
sI163
(dp4743
I0
(dp4744
g4137
g1999
ssssI163
(dp4745
I162
g4743
ssI164
(dp4746
I160
g4737
ssI165
(dp4747
I166
(dp4748
I0
(dp4749
g4137
g2026
ssssI166
(dp4750
I160
g4739
sI165
g4748
ssI167
(dp4751
I168
(dp4752
I0
(dp4753
g4137
g2045
sssI159
g4730
ssI168
(dp4754
I167
g4752
ssI169
(dp4755
I8
g4185
sI170
(dp4756
I0
(dp4757
g4137
g2064
sssI171
(dp4758
I0
(dp4759
g4137
g2067
sssI172
(dp4760
I0
(dp4761
g4137
g2070
sssI173
(dp4762
I0
(dp4763
g4137
g2073
sssI174
(dp4764
I0
(dp4765
g4137
g2076
ssssI170
(dp4766
I8
g4189
sI169
g4756
sI207
(dp4767
I0
(dp4768
g4137
g2087
sssI208
(dp4769
I0
(dp4770
g4137
g2090
sssI209
(dp4771
I0
(dp4772
g4137
g2093
sssI210
(dp4773
I0
(dp4774
g4137
g2096
ssssI171
(dp4775
I169
g4758
sI175
(dp4776
I0
(dp4777
g4137
g2116
sssI179
(dp4778
I0
(dp4779
g4137
g2110
sssI181
(dp4780
I0
(dp4781
g4137
g2113
sssI177
(dp4782
I0
(dp4783
g4137
g2107
ssssI172
(dp4784
I169
g4760
sI175
(dp4785
I0
(dp4786
g4137
g2136
sssI179
(dp4787
I0
(dp4788
g4137
g2130
sssI181
(dp4789
I0
(dp4790
g4137
g2133
sssI177
(dp4791
I0
(dp4792
g4137
g2127
ssssI173
(dp4793
I176
(dp4794
I0
(dp4795
g4137
g2156
sssI169
g4762
sI178
(dp4796
I0
(dp4797
g4137
g2147
sssI180
(dp4798
I0
(dp4799
g4137
g2150
sssI182
(dp4800
I0
(dp4801
g4137
g2153
ssssI174
(dp4802
I176
(dp4803
I0
(dp4804
g4137
g2176
sssI169
g4764
sI178
(dp4805
I0
(dp4806
g4137
g2167
sssI180
(dp4807
I0
(dp4808
g4137
g2170
sssI182
(dp4809
I0
(dp4810
g4137
g2173
ssssI175
(dp4811
I184
(dp4812
I0
(dp4813
g4137
g2190
sssI171
g4776
sI172
g4785
sI183
(dp4814
I0
(dp4815
g4137
g2187
ssssI176
(dp4816
I184
(dp4817
I0
(dp4818
g4137
g2204
sssI173
g4794
sI174
g4803
sI183
(dp4819
I0
(dp4820
g4137
g2201
ssssI177
(dp4821
I185
(dp4822
I0
(dp4823
g4137
g2215
sssI186
(dp4824
I0
(dp4825
g4137
g2218
sssI171
g4782
sI172
g4791
ssI178
(dp4826
I185
(dp4827
I0
(dp4828
g4137
g2229
sssI186
(dp4829
I0
(dp4830
g4137
g2232
sssI173
g4796
sI174
g4805
ssI179
(dp4831
I188
(dp4832
I0
(dp4833
g4137
g2246
sssI171
g4778
sI172
g4787
sI187
(dp4834
I0
(dp4835
g4137
g2243
ssssI180
(dp4836
I187
(dp4837
I0
(dp4838
g4137
g2257
sssI188
(dp4839
I0
(dp4840
g4137
g2260
sssI173
g4798
sI174
g4807
ssI181
(dp4841
I171
g4780
sI172
g4789
sI189
(dp4842
I0
(dp4843
g4137
g2271
sssI190
(dp4844
I0
(dp4845
g4137
g2274
ssssI182
(dp4846
I190
(dp4847
I0
(dp4848
g4137
g2288
sssI173
g4800
sI174
g4809
sI189
(dp4849
I0
(dp4850
g4137
g2285
ssssI183
(dp4851
I176
g4819
sI192
(dp4852
I0
(dp4853
g4137
g2299
sssI191
(dp4854
I0
(dp4855
g4137
g2302
sssI175
g4814
ssI184
(dp4856
I176
g4817
sI193
(dp4857
I0
(dp4858
g4137
g2313
sssI194
(dp4859
I0
(dp4860
g4137
g2316
sssI175
g4812
ssI185
(dp4861
I177
g4822
sI178
g4827
sI195
(dp4862
I0
(dp4863
g4137
g2327
sssI196
(dp4864
I0
(dp4865
g4137
g2330
ssssI186
(dp4866
I177
g4824
sI178
g4829
sI197
(dp4867
I0
(dp4868
g4137
g2341
sssI198
(dp4869
I0
(dp4870
g4137
g2344
ssssI187
(dp4871
I200
(dp4872
I0
(dp4873
g4137
g2358
sssI179
g4834
sI180
g4837
sI199
(dp4874
I0
(dp4875
g4137
g2355
ssssI188
(dp4876
I201
(dp4877
I0
(dp4878
g4137
g2369
sssI202
(dp4879
I0
(dp4880
g4137
g2372
sssI179
g4832
sI180
g4839
ssI189
(dp4881
I203
(dp4882
I0
(dp4883
g4137
g2383
sssI204
(dp4884
I0
(dp4885
g4137
g2386
sssI181
g4842
sI182
g4849
ssI190
(dp4886
I206
(dp4887
I0
(dp4888
g4137
g2400
sssI181
g4844
sI182
g4847
sI205
(dp4889
I0
(dp4890
g4137
g2397
ssssI191
(dp4891
I183
g4854
ssI192
(dp4892
I183
g4852
ssI193
(dp4893
I184
g4857
ssI194
(dp4894
I184
g4859
ssI195
(dp4895
I185
g4862
ssI196
(dp4896
I185
g4864
ssI197
(dp4897
I186
g4867
ssI198
(dp4898
I186
g4869
ssI199
(dp4899
I187
g4874
ssI200
(dp4900
I187
g4872
ssI201
(dp4901
I188
g4877
ssI202
(dp4902
I188
g4879
ssI203
(dp4903
I189
g4882
ssI204
(dp4904
I189
g4884
ssI205
(dp4905
I190
g4889
ssI206
(dp4906
I190
g4887
ssI207
(dp4907
I217
(dp4908
I0
(dp4909
g4137
g2539
sssI170
g4767
sI211
(dp4910
I0
(dp4911
g4137
g2542
sssI213
(dp4912
I0
(dp4913
g4137
g2545
sssI215
(dp4914
I0
(dp4915
g4137
g2548
ssssI208
(dp4916
I217
(dp4917
I0
(dp4918
g4137
g2559
sssI170
g4769
sI211
(dp4919
I0
(dp4920
g4137
g2562
sssI213
(dp4921
I0
(dp4922
g4137
g2565
sssI215
(dp4923
I0
(dp4924
g4137
g2568
ssssI209
(dp4925
I216
(dp4926
I0
(dp4927
g4137
g2588
sssI170
g4771
sI212
(dp4928
I0
(dp4929
g4137
g2582
sssI218
(dp4930
I0
(dp4931
g4137
g2579
sssI214
(dp4932
I0
(dp4933
g4137
g2585
ssssI210
(dp4934
I216
(dp4935
I0
(dp4936
g4137
g2608
sssI170
g4773
sI212
(dp4937
I0
(dp4938
g4137
g2602
sssI218
(dp4939
I0
(dp4940
g4137
g2599
sssI214
(dp4941
I0
(dp4942
g4137
g2605
ssssI211
(dp4943
I208
g4919
sI219
(dp4944
I0
(dp4945
g4137
g2619
sssI220
(dp4946
I0
(dp4947
g4137
g2622
sssI207
g4910
ssI212
(dp4948
I209
g4928
sI210
g4937
sI219
(dp4949
I0
(dp4950
g4137
g2633
sssI220
(dp4951
I0
(dp4952
g4137
g2636
ssssI213
(dp4953
I208
g4921
sI221
(dp4954
I0
(dp4955
g4137
g2647
sssI222
(dp4956
I0
(dp4957
g4137
g2650
sssI207
g4912
ssI214
(dp4958
I209
g4932
sI210
g4941
sI221
(dp4959
I0
(dp4960
g4137
g2661
sssI222
(dp4961
I0
(dp4962
g4137
g2664
ssssI215
(dp4963
I208
g4923
sI224
(dp4964
I0
(dp4965
g4137
g2675
sssI223
(dp4966
I0
(dp4967
g4137
g2678
sssI207
g4914
ssI216
(dp4968
I224
(dp4969
I0
(dp4970
g4137
g2692
sssI209
g4926
sI210
g4935
sI223
(dp4971
I0
(dp4972
g4137
g2689
ssssI217
(dp4973
I208
g4917
sI225
(dp4974
I0
(dp4975
g4137
g2703
sssI226
(dp4976
I0
(dp4977
g4137
g2706
sssI207
g4908
ssI218
(dp4978
I209
g4930
sI210
g4939
sI226
(dp4979
I0
(dp4980
g4137
g2720
sssI225
(dp4981
I0
(dp4982
g4137
g2717
ssssI219
(dp4983
I228
(dp4984
I0
(dp4985
g4137
g2734
sssI211
g4944
sI212
g4949
sI227
(dp4986
I0
(dp4987
g4137
g2731
ssssI220
(dp4988
I211
g4946
sI212
g4951
sI229
(dp4989
I0
(dp4990
g4137
g2745
sssI230
(dp4991
I0
(dp4992
g4137
g2748
ssssI221
(dp4993
I232
(dp4994
I0
(dp4995
g4137
g2762
sssI213
g4954
sI214
g4959
sI231
(dp4996
I0
(dp4997
g4137
g2759
ssssI222
(dp4998
I233
(dp4999
I0
(dp5000
g4137
g2773
sssI234
(dp5001
I0
(dp5002
g4137
g2776
sssI213
g4956
sI214
g4961
ssI223
(dp5003
I216
g4971
sI235
(dp5004
I0
(dp5005
g4137
g2787
sssI236
(dp5006
I0
(dp5007
g4137
g2790
sssI215
g4966
ssI224
(dp5008
I216
g4969
sI237
(dp5009
I0
(dp5010
g4137
g2801
sssI238
(dp5011
I0
(dp5012
g4137
g2804
sssI215
g4964
ssI225
(dp5013
I240
(dp5014
I0
(dp5015
g4137
g2818
sssI217
g4974
sI218
g4981
sI239
(dp5016
I0
(dp5017
g4137
g2815
ssssI226
(dp5018
I217
g4976
sI218
g4979
sI242
(dp5019
I0
(dp5020
g4137
g2832
sssI241
(dp5021
I0
(dp5022
g4137
g2829
ssssI227
(dp5023
I219
g4986
ssI228
(dp5024
I219
g4984
ssI229
(dp5025
I220
g4989
ssI230
(dp5026
I220
g4991
ssI231
(dp5027
I221
g4996
ssI232
(dp5028
I221
g4994
ssI233
(dp5029
I222
g4999
ssI234
(dp5030
I222
g5001
ssI235
(dp5031
I223
g5004
ssI236
(dp5032
I223
g5006
ssI237
(dp5033
I224
g5009
ssI238
(dp5034
I224
g5011
ssI239
(dp5035
I225
g5016
ssI240
(dp5036
I225
g5014
ssI241
(dp5037
I226
g5021
ssI242
(dp5038
I226
g5019
ssI243
(dp5039
I9
g4194
sI244
(dp5040
I0
(dp5041
g4137
g2971
sssI245
(dp5042
I0
(dp5043
g4137
g2974
ssssI244
(dp5044
I9
g4196
sI243
g5040
sI252
(dp5045
I0
(dp5046
g4137
g2985
ssssI245
(dp5047
I243
g5042
sI246
(dp5048
I0
(dp5049
g4137
g2996
sssI247
(dp5050
I0
(dp5051
g4137
g2999
ssssI246
(dp5052
I248
(dp5053
I0
(dp5054
g4137
g3010
sssI245
g5048
ssI247
(dp5055
I249
(dp5056
I0
(dp5057
g4137
g3021
sssI245
g5050
ssI248
(dp5058
I250
(dp5059
I0
(dp5060
g4137
g3032
sssI246
g5053
ssI249
(dp5061
I251
(dp5062
I0
(dp5063
g4137
g3043
sssI247
g5056
ssI250
(dp5064
I248
g5059
ssI251
(dp5065
I249
g5062
ssI252
(dp5066
I244
g5045
sI253
(dp5067
I0
(dp5068
g4137
g3070
sssI254
(dp5069
I0
(dp5070
g4137
g3073
ssssI253
(dp5071
I252
g5067
sI255
(dp5072
I0
(dp5073
g4137
g3084
ssssI254
(dp5074
I256
(dp5075
I0
(dp5076
g4137
g3095
sssI252
g5069
ssI255
(dp5077
I257
(dp5078
I0
(dp5079
g4137
g3106
sssI253
g5072
ssI256
(dp5080
I258
(dp5081
I0
(dp5082
g4137
g3117
sssI254
g5075
ssI257
(dp5083
I255
g5078
ssI258
(dp5084
I256
g5081
ssI259
(dp5085
I10
g4201
sI260
(dp5086
I0
(dp5087
g4137
g3144
sssI263
(dp5088
I0
(dp5089
g4137
g3147
ssssI260
(dp5090
I264
(dp5091
I0
(dp5092
g4137
g3158
sssI10
g4203
sI259
g5086
ssI261
(dp5093
I263
(dp5094
I0
(dp5095
g4137
g3169
ssssI262
(dp5096
I263
(dp5097
I0
(dp5098
g4137
g3180
ssssI263
(dp5099
I259
g5088
sI261
g5094
sI262
g5097
ssI264
(dp5100
I265
(dp5101
I0
(dp5102
g4137
g3199
sssI266
(dp5103
I0
(dp5104
g4137
g3202
sssI260
g5091
ssI265
(dp5105
I264
g5101
ssI266
(dp5106
I264
g5103
ssI267
(dp5107
I11
g4206
sI268
(dp5108
I0
(dp5109
g4137
g3229
sssI269
(dp5110
I0
(dp5111
g4137
g3232
sssI270
(dp5112
I0
(dp5113
g4137
g3235
sssI271
(dp5114
I0
(dp5115
g4137
g3238
sssI272
(dp5116
I0
(dp5117
g4137
g3241
ssssI268
(dp5118
I11
g4208
sI267
g5108
sI305
(dp5119
I0
(dp5120
g4137
g3252
sssI306
(dp5121
I0
(dp5122
g4137
g3255
sssI307
(dp5123
I0
(dp5124
g4137
g3258
sssI308
(dp5125
I0
(dp5126
g4137
g3261
ssssI269
(dp5127
I275
(dp5128
I0
(dp5129
g4137
g3275
sssI273
(dp5130
I0
(dp5131
g4137
g3272
sssI267
g5110
sI277
(dp5132
I0
(dp5133
g4137
g3278
sssI279
(dp5134
I0
(dp5135
g4137
g3281
ssssI270
(dp5136
I275
(dp5137
I0
(dp5138
g4137
g3295
sssI273
(dp5139
I0
(dp5140
g4137
g3292
sssI267
g5112
sI277
(dp5141
I0
(dp5142
g4137
g3298
sssI279
(dp5143
I0
(dp5144
g4137
g3301
ssssI271
(dp5145
I280
(dp5146
I0
(dp5147
g4137
g3321
sssI274
(dp5148
I0
(dp5149
g4137
g3312
sssI267
g5114
sI276
(dp5150
I0
(dp5151
g4137
g3315
sssI278
(dp5152
I0
(dp5153
g4137
g3318
ssssI272
(dp5154
I280
(dp5155
I0
(dp5156
g4137
g3341
sssI274
(dp5157
I0
(dp5158
g4137
g3332
sssI267
g5116
sI276
(dp5159
I0
(dp5160
g4137
g3335
sssI278
(dp5161
I0
(dp5162
g4137
g3338
ssssI273
(dp5163
I281
(dp5164
I0
(dp5165
g4137
g3352
sssI282
(dp5166
I0
(dp5167
g4137
g3355
sssI269
g5130
sI270
g5139
ssI274
(dp5168
I272
g5157
sI281
(dp5169
I0
(dp5170
g4137
g3366
sssI282
(dp5171
I0
(dp5172
g4137
g3369
sssI271
g5148
ssI275
(dp5173
I283
(dp5174
I0
(dp5175
g4137
g3380
sssI284
(dp5176
I0
(dp5177
g4137
g3383
sssI269
g5128
sI270
g5137
ssI276
(dp5178
I272
g5159
sI283
(dp5179
I0
(dp5180
g4137
g3394
sssI284
(dp5181
I0
(dp5182
g4137
g3397
sssI271
g5150
ssI277
(dp5183
I286
(dp5184
I0
(dp5185
g4137
g3411
sssI269
g5132
sI270
g5141
sI285
(dp5186
I0
(dp5187
g4137
g3408
ssssI278
(dp5188
I272
g5161
sI285
(dp5189
I0
(dp5190
g4137
g3422
sssI286
(dp5191
I0
(dp5192
g4137
g3425
sssI271
g5152
ssI279
(dp5193
I288
(dp5194
I0
(dp5195
g4137
g3439
sssI269
g5134
sI270
g5143
sI287
(dp5196
I0
(dp5197
g4137
g3436
ssssI280
(dp5198
I272
g5155
sI288
(dp5199
I0
(dp5200
g4137
g3450
sssI287
(dp5201
I0
(dp5202
g4137
g3453
sssI271
g5146
ssI281
(dp5203
I273
g5164
sI274
g5169
sI290
(dp5204
I0
(dp5205
g4137
g3464
sssI289
(dp5206
I0
(dp5207
g4137
g3467
ssssI282
(dp5208
I273
g5166
sI274
g5171
sI291
(dp5209
I0
(dp5210
g4137
g3478
sssI292
(dp5211
I0
(dp5212
g4137
g3481
ssssI283
(dp5213
I275
g5174
sI276
g5179
sI293
(dp5214
I0
(dp5215
g4137
g3492
sssI294
(dp5216
I0
(dp5217
g4137
g3495
ssssI284
(dp5218
I296
(dp5219
I0
(dp5220
g4137
g3509
sssI275
g5176
sI276
g5181
sI295
(dp5221
I0
(dp5222
g4137
g3506
ssssI285
(dp5223
I297
(dp5224
I0
(dp5225
g4137
g3520
sssI298
(dp5226
I0
(dp5227
g4137
g3523
sssI277
g5186
sI278
g5189
ssI286
(dp5228
I299
(dp5229
I0
(dp5230
g4137
g3534
sssI300
(dp5231
I0
(dp5232
g4137
g3537
sssI277
g5184
sI278
g5191
ssI287
(dp5233
I280
g5201
sI301
(dp5234
I0
(dp5235
g4137
g3548
sssI302
(dp5236
I0
(dp5237
g4137
g3551
sssI279
g5196
ssI288
(dp5238
I280
g5199
sI304
(dp5239
I0
(dp5240
g4137
g3562
sssI303
(dp5241
I0
(dp5242
g4137
g3565
sssI279
g5194
ssI289
(dp5243
I281
g5206
ssI290
(dp5244
I281
g5204
ssI291
(dp5245
I282
g5209
ssI292
(dp5246
I282
g5211
ssI293
(dp5247
I283
g5214
ssI294
(dp5248
I283
g5216
ssI295
(dp5249
I284
g5221
ssI296
(dp5250
I284
g5219
ssI297
(dp5251
I285
g5224
ssI298
(dp5252
I285
g5226
ssI299
(dp5253
I286
g5229
ssI300
(dp5254
I286
g5231
ssI301
(dp5255
I287
g5234
ssI302
(dp5256
I287
g5236
ssI303
(dp5257
I288
g5241
ssI304
(dp5258
I288
g5239
ssI305
(dp5259
I313
(dp5260
I0
(dp5261
g4137
g3704
sssI315
(dp5262
I0
(dp5263
g4137
g3707
sssI268
g5119
sI309
(dp5264
I0
(dp5265
g4137
g3710
sssI311
(dp5266
I0
(dp5267
g4137
g3713
ssssI306
(dp5268
I313
(dp5269
I0
(dp5270
g4137
g3724
sssI315
(dp5271
I0
(dp5272
g4137
g3727
sssI268
g5121
sI309
(dp5273
I0
(dp5274
g4137
g3730
sssI311
(dp5275
I0
(dp5276
g4137
g3733
ssssI307
(dp5277
I312
(dp5278
I0
(dp5279
g4137
g3753
sssI316
(dp5280
I0
(dp5281
g4137
g3747
sssI314
(dp5282
I0
(dp5283
g4137
g3744
sssI268
g5123
sI310
(dp5284
I0
(dp5285
g4137
g3750
ssssI308
(dp5286
I312
(dp5287
I0
(dp5288
g4137
g3773
sssI316
(dp5289
I0
(dp5290
g4137
g3767
sssI314
(dp5291
I0
(dp5292
g4137
g3764
sssI268
g5125
sI310
(dp5293
I0
(dp5294
g4137
g3770
ssssI309
(dp5295
I305
g5264
sI306
g5273
sI317
(dp5296
I0
(dp5297
g4137
g3784
sssI318
(dp5298
I0
(dp5299
g4137
g3787
ssssI310
(dp5300
I307
g5284
sI308
g5293
sI317
(dp5301
I0
(dp5302
g4137
g3798
sssI318
(dp5303
I0
(dp5304
g4137
g3801
ssssI311
(dp5305
I320
(dp5306
I0
(dp5307
g4137
g3815
sssI305
g5266
sI306
g5275
sI319
(dp5308
I0
(dp5309
g4137
g3812
ssssI312
(dp5310
I320
(dp5311
I0
(dp5312
g4137
g3829
sssI307
g5278
sI308
g5287
sI319
(dp5313
I0
(dp5314
g4137
g3826
ssssI313
(dp5315
I305
g5260
sI306
g5269
sI322
(dp5316
I0
(dp5317
g4137
g3843
sssI321
(dp5318
I0
(dp5319
g4137
g3840
ssssI314
(dp5320
I321
(dp5321
I0
(dp5322
g4137
g3854
sssI322
(dp5323
I0
(dp5324
g4137
g3857
sssI307
g5282
sI308
g5291
ssI315
(dp5325
I305
g5262
sI306
g5271
sI323
(dp5326
I0
(dp5327
g4137
g3868
sssI324
(dp5328
I0
(dp5329
g4137
g3871
ssssI316
(dp5330
I324
(dp5331
I0
(dp5332
g4137
g3882
sssI323
(dp5333
I0
(dp5334
g4137
g3885
sssI307
g5280
sI308
g5289
ssI317
(dp5335
I326
(dp5336
I0
(dp5337
g4137
g3899
sssI309
g5296
sI310
g5301
sI325
(dp5338
I0
(dp5339
g4137
g3896
ssssI318
(dp5340
I328
(dp5341
I0
(dp5342
g4137
g3913
sssI309
g5298
sI310
g5303
sI327
(dp5343
I0
(dp5344
g4137
g3910
ssssI319
(dp5345
I312
g5313
sI329
(dp5346
I0
(dp5347
g4137
g3924
sssI330
(dp5348
I0
(dp5349
g4137
g3927
sssI311
g5308
ssI320
(dp5350
I312
g5311
sI331
(dp5351
I0
(dp5352
g4137
g3938
sssI332
(dp5353
I0
(dp5354
g4137
g3941
sssI311
g5306
ssI321
(dp5355
I313
g5318
sI314
g5321
sI333
(dp5356
I0
(dp5357
g4137
g3952
sssI334
(dp5358
I0
(dp5359
g4137
g3955
ssssI322
(dp5360
I336
(dp5361
I0
(dp5362
g4137
g3969
sssI313
g5316
sI314
g5323
sI335
(dp5363
I0
(dp5364
g4137
g3966
ssssI323
(dp5365
I337
(dp5366
I0
(dp5367
g4137
g3980
sssI338
(dp5368
I0
(dp5369
g4137
g3983
sssI315
g5326
sI316
g5333
ssI324
(dp5370
I340
(dp5371
I0
(dp5372
g4137
g3994
sssI339
(dp5373
I0
(dp5374
g4137
g3997
sssI315
g5328
sI316
g5331
ssI325
(dp5375
I317
g5338
ssI326
(dp5376
I317
g5336
ssI327
(dp5377
I318
g5343
ssI328
(dp5378
I318
g5341
ssI329
(dp5379
I319
g5346
ssI330
(dp5380
I319
g5348
ssI331
(dp5381
I320
g5351
ssI332
(dp5382
I320
g5353
ssI333
(dp5383
I321
g5356
ssI334
(dp5384
I321
g5358
ssI335
(dp5385
I322
g5363
ssI336
(dp5386
I322
g5361
ssI337
(dp5387
I323
g5366
ssI338
(dp5388
I323
g5368
ssI339
(dp5389
I324
g5373
ssI340
(dp5390
I324
g5371
sssS'graph'
p5391
(dp5392
sS'adjlist_dict_factory'
p5393
g4129
sS'adj'
p5394
g4133
sbsb.