ccopy_reg
_reconstructor
p0
(cnetwork
Network
p1
c__builtin__
object
p2
Ntp3
Rp4
(dp5
S'meta'
p6
S'TLex.graphml'
p7
sS'ID_map'
p8
(dp9
I0
I1
sI1
I2
sI2
I3
sI3
I4
sI4
I5
sI5
I6
sI6
I7
sI7
I8
sI8
I9
sI9
I10
sI10
I11
sI11
I12
sI12
I13
sI13
I14
sI14
I15
sI15
I16
sI16
I17
sI17
I18
sI19
I19
sI20
I20
sI21
I21
sI22
I22
sI24
I23
sI25
I24
sI26
I25
sI27
I26
sI28
I27
sI29
I28
sI32
I29
sI33
I30
sI34
I31
sI35
I32
sI36
I33
sI37
I34
sI38
I35
sI39
I36
sI40
I37
sI41
I38
sI42
I39
sI43
I40
sI44
I41
sI45
I42
sI46
I43
sI47
I44
sI48
I45
sI49
I46
sI50
I47
sI51
I48
sI52
I49
sI53
I50
sI54
I51
sI55
I52
sI56
I53
sI57
I54
sI58
I55
sI59
I56
sI60
I57
sI61
I58
sI62
I59
sI63
I60
sI64
I61
sI65
I62
sI66
I63
sI67
I64
sI68
I65
sI69
I66
sI70
I67
sI71
I68
sI72
I69
sI73
I70
sI74
I71
sI75
I72
sI76
I73
sI77
I74
sI78
I75
sI79
I76
sI80
I77
sI81
I78
sI82
I79
sI83
I80
sI84
I81
sI85
I82
sI86
I83
sI87
I84
sI88
I85
sI89
I86
sI90
I87
sI91
I88
sI92
I89
sI93
I90
sI94
I91
sI95
I92
sI96
I93
sI97
I94
sI98
I95
sI99
I96
sI100
I97
sI101
I98
sI102
I99
sI103
I100
sI104
I101
sI105
I102
sI106
I103
sI107
I104
sI108
I105
sI109
I106
sI110
I107
sI111
I108
sI112
I109
sI113
I110
sI114
I111
sI116
I112
sI118
I113
sI119
I114
sI120
I115
sI121
I116
sI122
I117
sI123
I118
sI124
I119
sI125
I120
sI126
I121
sI127
I122
sI128
I123
sI129
I124
sI130
I125
sI131
I126
sI132
I127
sI133
I128
sI134
I129
sI135
I130
sI136
I131
sI137
I132
sI138
I133
sI139
I134
sI140
I135
sI141
I136
sI142
I137
sI143
I138
sI144
I139
sI145
I140
sI146
I141
sI147
I142
sI148
I143
sI149
I144
sI150
I145
sI151
I146
sI152
I147
sI153
I148
sI154
I149
sI155
I150
sI156
I151
sI157
I152
sI158
I153
sI159
I154
sI160
I155
sI161
I156
sI162
I157
sI163
I158
sI164
I159
sI165
I160
sI166
I161
sI167
I162
sI168
I163
sI169
I164
sI170
I165
sI171
I166
sI172
I167
sI173
I168
sI174
I169
sI175
I170
sI176
I171
sI177
I172
sI178
I173
sI179
I174
sI180
I175
sI181
I176
sI182
I177
sI183
I178
sI184
I179
sI185
I180
sI186
I181
sI187
I182
sI188
I183
sI189
I184
sI190
I185
sI191
I186
sI192
I187
sI193
I188
sI194
I189
sI195
I190
sI196
I191
sI197
I192
sI198
I193
sI199
I194
sI200
I195
sI201
I196
sI202
I197
sI203
I198
sI204
I199
sI205
I200
sI206
I201
sI207
I202
sI208
I203
sI209
I204
sI210
I205
sI211
I206
sI212
I207
sI213
I208
sI214
I209
sI215
I210
sI216
I211
sI217
I212
sI218
I213
sI219
I214
sI220
I215
sI221
I216
sI222
I217
sI223
I218
sI224
I219
sI225
I220
sI226
I221
sI227
I222
sI228
I223
sI229
I224
sI230
I225
sI231
I226
sI232
I227
sI233
I228
sI234
I229
sI235
I230
sI236
I231
sI237
I232
sI238
I233
sI239
I234
sI240
I235
sI241
I236
sI242
I237
sI243
I238
sI244
I239
sI245
I240
sI246
I241
sI247
I242
sI248
I243
sI249
I244
sI250
I245
sI251
I246
sI252
I247
sI253
I248
sI254
I249
sI255
I250
sI256
I251
sI257
I252
sI258
I253
sI259
I254
sI260
I255
sI261
I256
sI262
I257
sI263
I258
sI264
I259
sI265
I260
sI266
I261
sI267
I262
sI268
I263
sI269
I264
sI270
I265
sI271
I266
sI272
I267
sI273
I268
sI274
I269
sI275
I270
sI276
I271
sI277
I272
sI278
I273
sI279
I274
sI280
I275
sI281
I276
sI282
I277
sI283
I278
sI284
I279
sI285
I280
sI286
I281
sI287
I282
sI288
I283
sI289
I284
sI290
I285
sI291
I286
sI292
I287
sI293
I288
sI294
I289
ssS'topology'
p10
g0
(cnetworkx.classes.multigraph
MultiGraph
p11
g2
Ntp12
Rp13
(dp14
S'node'
p15
(dp16
I1
(dp17
g15
g0
(covsswitch
OVSSwitch
p18
g2
Ntp19
Rp20
(dp21
S'tables'
p22
(lp23
sS'name'
p24
S'ovs-sw0'
p25
sS'ip'
p26
NsS'ID'
p27
I0
sS'mac'
p28
NsS'msk'
p29
NsS'dpid'
p30
NsS'ports'
p31
(dp32
I0
g0
(clink
Link
p33
g2
Ntp34
Rp35
(dp36
S'latency'
p37
I70
sS'a_port'
p38
I0
sS'b_port'
p39
I0
sS'b_node'
p40
I3
sS'throughput'
p41
I10
sS'a_node'
p42
I0
sbsI1
g0
(g33
g2
Ntp43
Rp44
(dp45
g37
I10
sg38
I1
sg39
I0
sg40
I12
sg41
I10
sg42
I0
sbsI2
g0
(g33
g2
Ntp46
Rp47
(dp48
g37
I10
sg38
I2
sg39
I0
sg40
I13
sg41
I10
sg42
I0
sbssS'opts'
p49
(dp50
sbssI2
(dp51
g15
g0
(g18
g2
Ntp52
Rp53
(dp54
g22
(lp55
sg24
S'ovs-sw1'
p56
sg26
Nsg27
I1
sg28
Nsg29
Nsg30
Nsg31
(dp57
I0
g0
(g33
g2
Ntp58
Rp59
(dp60
g37
I70
sg38
I0
sg39
I1
sg40
I3
sg41
I10
sg42
I1
sbsI1
g0
(g33
g2
Ntp61
Rp62
(dp63
g37
I10
sg38
I1
sg39
I0
sg40
I20
sg41
I10
sg42
I1
sbsI2
g0
(g33
g2
Ntp64
Rp65
(dp66
g37
I10
sg38
I2
sg39
I0
sg40
I21
sg41
I10
sg42
I1
sbssg49
(dp67
sbssI3
(dp68
g15
g0
(g18
g2
Ntp69
Rp70
(dp71
g22
(lp72
sg24
S'ovs-sw2'
p73
sg26
Nsg27
I2
sg28
Nsg29
Nsg30
Nsg31
(dp74
I0
g0
(g33
g2
Ntp75
Rp76
(dp77
g37
I70
sg38
I0
sg39
I0
sg40
I11
sg41
I10
sg42
I2
sbsI1
g0
(g33
g2
Ntp78
Rp79
(dp80
g37
I10
sg38
I1
sg39
I0
sg40
I35
sg41
I10
sg42
I2
sbsI2
g0
(g33
g2
Ntp81
Rp82
(dp83
g37
I10
sg38
I2
sg39
I0
sg40
I34
sg41
I10
sg42
I2
sbsI3
g0
(g33
g2
Ntp84
Rp85
(dp86
g37
I70
sg38
I3
sg39
I2
sg40
I3
sg41
I10
sg42
I2
sbssg49
(dp87
sbssI4
(dp88
g15
g0
(g18
g2
Ntp89
Rp90
(dp91
g22
(lp92
sg24
S'ovs-sw3'
p93
sg26
Nsg27
I3
sg28
Nsg29
Nsg30
Nsg31
(dp94
I0
g35
sI1
g59
sI2
g85
sI3
g0
(g33
g2
Ntp95
Rp96
(dp97
g37
I70
sg38
I3
sg39
I0
sg40
I10
sg41
I10
sg42
I3
sbsI4
g0
(g33
g2
Ntp98
Rp99
(dp100
g37
I70
sg38
I4
sg39
I1
sg40
I11
sg41
I10
sg42
I3
sbsI5
g0
(g33
g2
Ntp101
Rp102
(dp103
g37
I10
sg38
I5
sg39
I0
sg40
I108
sg41
I10
sg42
I3
sbsI6
g0
(g33
g2
Ntp104
Rp105
(dp106
g37
I10
sg38
I6
sg39
I0
sg40
I109
sg41
I10
sg42
I3
sbssg49
(dp107
sbssI5
(dp108
g15
g0
(g18
g2
Ntp109
Rp110
(dp111
g22
(lp112
sg24
S'ovs-sw4'
p113
sg26
Nsg27
I4
sg28
Nsg29
Nsg30
Nsg31
(dp114
I0
g0
(g33
g2
Ntp115
Rp116
(dp117
g37
I10
sg38
I0
sg39
I0
sg40
I120
sg41
I10
sg42
I4
sbsI1
g0
(g33
g2
Ntp118
Rp119
(dp120
g37
I10
sg38
I1
sg39
I0
sg40
I121
sg41
I10
sg42
I4
sbsI2
g0
(g33
g2
Ntp121
Rp122
(dp123
g37
I70
sg38
I2
sg39
I2
sg40
I11
sg41
I10
sg42
I4
sbssg49
(dp124
sbssI6
(dp125
g15
g0
(g18
g2
Ntp126
Rp127
(dp128
g22
(lp129
sg24
S'ovs-sw5'
p130
sg26
Nsg27
I5
sg28
Nsg29
Nsg30
Nsg31
(dp131
I0
g0
(g33
g2
Ntp132
Rp133
(dp134
g37
I10
sg38
I0
sg39
I0
sg40
I152
sg41
I10
sg42
I5
sbsI1
g0
(g33
g2
Ntp135
Rp136
(dp137
g37
I10
sg38
I1
sg39
I0
sg40
I153
sg41
I10
sg42
I5
sbsI2
g0
(g33
g2
Ntp138
Rp139
(dp140
g37
I70
sg38
I2
sg39
I3
sg40
I11
sg41
I10
sg42
I5
sbssg49
(dp141
sbssI7
(dp142
g15
g0
(g18
g2
Ntp143
Rp144
(dp145
g22
(lp146
sg24
S'ovs-sw6'
p147
sg26
Nsg27
I6
sg28
Nsg29
Nsg30
Nsg31
(dp148
I0
g0
(g33
g2
Ntp149
Rp150
(dp151
g37
I10
sg38
I0
sg39
I0
sg40
I160
sg41
I10
sg42
I6
sbsI1
g0
(g33
g2
Ntp152
Rp153
(dp154
g37
I70
sg38
I1
sg39
I4
sg40
I11
sg41
I10
sg42
I6
sbsI2
g0
(g33
g2
Ntp155
Rp156
(dp157
g37
I10
sg38
I2
sg39
I0
sg40
I159
sg41
I10
sg42
I6
sbssg49
(dp158
sbssI8
(dp159
g15
g0
(g18
g2
Ntp160
Rp161
(dp162
g22
(lp163
sg24
S'ovs-sw7'
p164
sg26
Nsg27
I7
sg28
Nsg29
Nsg30
Nsg31
(dp165
I0
g0
(g33
g2
Ntp166
Rp167
(dp168
g37
I10
sg38
I0
sg39
I0
sg40
I169
sg41
I10
sg42
I7
sbsI1
g0
(g33
g2
Ntp169
Rp170
(dp171
g37
I10
sg38
I1
sg39
I0
sg40
I170
sg41
I10
sg42
I7
sbsI2
g0
(g33
g2
Ntp172
Rp173
(dp174
g37
I70
sg38
I2
sg39
I5
sg40
I11
sg41
I10
sg42
I7
sbssg49
(dp175
sbssI9
(dp176
g15
g0
(g18
g2
Ntp177
Rp178
(dp179
g22
(lp180
sg24
S'ovs-sw8'
p181
sg26
Nsg27
I8
sg28
Nsg29
Nsg30
Nsg31
(dp182
I0
g0
(g33
g2
Ntp183
Rp184
(dp185
g37
I10
sg38
I0
sg39
I0
sg40
I177
sg41
I10
sg42
I8
sbsI1
g0
(g33
g2
Ntp186
Rp187
(dp188
g37
I10
sg38
I1
sg39
I0
sg40
I178
sg41
I10
sg42
I8
sbsI2
g0
(g33
g2
Ntp189
Rp190
(dp191
g37
I70
sg38
I2
sg39
I6
sg40
I11
sg41
I10
sg42
I8
sbssg49
(dp192
sbssI10
(dp193
g15
g0
(g18
g2
Ntp194
Rp195
(dp196
g22
(lp197
sg24
S'ovs-sw9'
p198
sg26
Nsg27
I9
sg28
Nsg29
Nsg30
Nsg31
(dp199
I0
g0
(g33
g2
Ntp200
Rp201
(dp202
g37
I10
sg38
I0
sg39
I0
sg40
I193
sg41
I10
sg42
I9
sbsI1
g0
(g33
g2
Ntp203
Rp204
(dp205
g37
I70
sg38
I1
sg39
I1
sg40
I10
sg41
I10
sg42
I9
sbsI2
g0
(g33
g2
Ntp206
Rp207
(dp208
g37
I10
sg38
I2
sg39
I0
sg40
I194
sg41
I10
sg42
I9
sbssg49
(dp209
sbssI11
(dp210
g15
g0
(g18
g2
Ntp211
Rp212
(dp213
g22
(lp214
sg24
S'ovs-sw10'
p215
sg26
Nsg27
I10
sg28
Nsg29
Nsg30
Nsg31
(dp216
I0
g96
sI1
g204
sI2
g0
(g33
g2
Ntp217
Rp218
(dp219
g37
I70
sg38
I2
sg39
I7
sg40
I11
sg41
I10
sg42
I10
sbsI3
g0
(g33
g2
Ntp220
Rp221
(dp222
g37
I10
sg38
I3
sg39
I0
sg40
I205
sg41
I10
sg42
I10
sbsI4
g0
(g33
g2
Ntp223
Rp224
(dp225
g37
I10
sg38
I4
sg39
I0
sg40
I206
sg41
I10
sg42
I10
sbssg49
(dp226
sbssI12
(dp227
g15
g0
(g18
g2
Ntp228
Rp229
(dp230
g22
(lp231
sg24
S'ovs-sw11'
p232
sg26
Nsg27
I11
sg28
Nsg29
Nsg30
Nsg31
(dp233
I0
g76
sI1
g99
sI2
g122
sI3
g139
sI4
g153
sI5
g173
sI6
g190
sI7
g218
sI8
g0
(g33
g2
Ntp234
Rp235
(dp236
g37
I10
sg38
I8
sg39
I0
sg40
I221
sg41
I10
sg42
I11
sbsI9
g0
(g33
g2
Ntp237
Rp238
(dp239
g37
I10
sg38
I9
sg39
I0
sg40
I222
sg41
I10
sg42
I11
sbssg49
(dp240
sbssI13
(dp241
g15
g0
(g18
g2
Ntp242
Rp243
(dp244
g22
(lp245
sg24
S'ovs-sw12'
p246
sg26
Nsg27
I12
sg28
Nsg29
Nsg30
Nsg31
(dp247
I0
g44
sI1
g0
(g33
g2
Ntp248
Rp249
(dp250
g37
I10
sg38
I1
sg39
I1
sg40
I13
sg41
I1
sg42
I12
sbsI2
g0
(g33
g2
Ntp251
Rp252
(dp253
g37
I10
sg38
I2
sg39
I0
sg40
I15
sg41
I1
sg42
I12
sbssg49
(dp254
sbssI14
(dp255
g15
g0
(g18
g2
Ntp256
Rp257
(dp258
g22
(lp259
sg24
S'ovs-sw13'
p260
sg26
Nsg27
I13
sg28
Nsg29
Nsg30
Nsg31
(dp261
I0
g47
sI1
g249
sI2
g0
(g33
g2
Ntp262
Rp263
(dp264
g37
I10
sg38
I2
sg39
I0
sg40
I17
sg41
I1
sg42
I13
sbssg49
(dp265
sbssI15
(dp266
g15
g0
(g18
g2
Ntp267
Rp268
(dp269
g22
(lp270
sg24
S'ovs-sw14'
p271
sg26
Nsg27
I14
sg28
Nsg29
Nsg30
Nsg31
(dp272
I0
g0
(g33
g2
Ntp273
Rp274
(dp275
g37
I10
sg38
I0
sg39
I1
sg40
I15
sg41
I1
sg42
I14
sbssg49
(dp276
sbssI16
(dp277
g15
g0
(g18
g2
Ntp278
Rp279
(dp280
g22
(lp281
sg24
S'ovs-sw15'
p282
sg26
Nsg27
I15
sg28
Nsg29
Nsg30
Nsg31
(dp283
I0
g252
sI1
g274
sI2
g0
(g33
g2
Ntp284
Rp285
(dp286
g37
I10
sg38
I2
sg39
I0
sg40
I16
sg41
I1
sg42
I15
sbssg49
(dp287
sbssI17
(dp288
g15
g0
(g18
g2
Ntp289
Rp290
(dp291
g22
(lp292
sg24
S'ovs-sw16'
p293
sg26
Nsg27
I16
sg28
Nsg29
Nsg30
Nsg31
(dp294
I0
g285
ssg49
(dp295
sbssI18
(dp296
g15
g0
(g18
g2
Ntp297
Rp298
(dp299
g22
(lp300
sg24
S'ovs-sw17'
p301
sg26
Nsg27
I17
sg28
Nsg29
Nsg30
Nsg31
(dp302
I0
g263
sI1
g0
(g33
g2
Ntp303
Rp304
(dp305
g37
I10
sg38
I1
sg39
I0
sg40
I19
sg41
I1
sg42
I17
sbssg49
(dp306
sbssI19
(dp307
g15
g0
(g18
g2
Ntp308
Rp309
(dp310
g22
(lp311
sg24
S'ovs-sw19'
p312
sg26
Nsg27
I19
sg28
Nsg29
Nsg30
Nsg31
(dp313
I0
g304
ssg49
(dp314
sbssI20
(dp315
g15
g0
(g18
g2
Ntp316
Rp317
(dp318
g22
(lp319
sg24
S'ovs-sw20'
p320
sg26
Nsg27
I20
sg28
Nsg29
Nsg30
Nsg31
(dp321
I0
g62
sI1
g0
(g33
g2
Ntp322
Rp323
(dp324
g37
I10
sg38
I1
sg39
I0
sg40
I26
sg41
I1
sg42
I20
sbsI2
g0
(g33
g2
Ntp325
Rp326
(dp327
g37
I10
sg38
I2
sg39
I1
sg40
I21
sg41
I1
sg42
I20
sbssg49
(dp328
sbssI21
(dp329
g15
g0
(g18
g2
Ntp330
Rp331
(dp332
g22
(lp333
sg24
S'ovs-sw21'
p334
sg26
Nsg27
I21
sg28
Nsg29
Nsg30
Nsg31
(dp335
I0
g65
sI1
g326
sI2
g0
(g33
g2
Ntp336
Rp337
(dp338
g37
I10
sg38
I2
sg39
I0
sg40
I33
sg41
I1
sg42
I21
sbssg49
(dp339
sbssI22
(dp340
g15
g0
(g18
g2
Ntp341
Rp342
(dp343
g22
(lp344
sg24
S'ovs-sw22'
p345
sg26
Nsg27
I22
sg28
Nsg29
Nsg30
Nsg31
(dp346
I0
g0
(g33
g2
Ntp347
Rp348
(dp349
g37
I10
sg38
I0
sg39
I1
sg40
I26
sg41
I1
sg42
I22
sbssg49
(dp350
sbssI23
(dp351
g15
g0
(g18
g2
Ntp352
Rp353
(dp354
g22
(lp355
sg24
S'ovs-sw24'
p356
sg26
Nsg27
I24
sg28
Nsg29
Nsg30
Nsg31
(dp357
I0
g0
(g33
g2
Ntp358
Rp359
(dp360
g37
I10
sg38
I0
sg39
I0
sg40
I25
sg41
I1
sg42
I24
sbssg49
(dp361
sbssI24
(dp362
g15
g0
(g18
g2
Ntp363
Rp364
(dp365
g22
(lp366
sg24
S'ovs-sw25'
p367
sg26
Nsg27
I25
sg28
Nsg29
Nsg30
Nsg31
(dp368
I0
g359
sI1
g0
(g33
g2
Ntp369
Rp370
(dp371
g37
I10
sg38
I1
sg39
I2
sg40
I26
sg41
I1
sg42
I25
sbssg49
(dp372
sbssI25
(dp373
g15
g0
(g18
g2
Ntp374
Rp375
(dp376
g22
(lp377
sg24
S'ovs-sw26'
p378
sg26
Nsg27
I26
sg28
Nsg29
Nsg30
Nsg31
(dp379
I0
g323
sI1
g348
sI2
g370
sI3
g0
(g33
g2
Ntp380
Rp381
(dp382
g37
I10
sg38
I3
sg39
I0
sg40
I27
sg41
I1
sg42
I26
sbssg49
(dp383
sbssI26
(dp384
g15
g0
(g18
g2
Ntp385
Rp386
(dp387
g22
(lp388
sg24
S'ovs-sw27'
p389
sg26
Nsg27
I27
sg28
Nsg29
Nsg30
Nsg31
(dp390
I0
g381
ssg49
(dp391
sbssI27
(dp392
g15
g0
(g18
g2
Ntp393
Rp394
(dp395
g22
(lp396
sg24
S'ovs-sw28'
p397
sg26
Nsg27
I28
sg28
Nsg29
Nsg30
Nsg31
(dp398
I0
g0
(g33
g2
Ntp399
Rp400
(dp401
g37
I10
sg38
I0
sg39
I1
sg40
I33
sg41
I1
sg42
I28
sbssg49
(dp402
sbssI28
(dp403
g15
g0
(g18
g2
Ntp404
Rp405
(dp406
g22
(lp407
sg24
S'ovs-sw29'
p408
sg26
Nsg27
I29
sg28
Nsg29
Nsg30
Nsg31
(dp409
I0
g0
(g33
g2
Ntp410
Rp411
(dp412
g37
I10
sg38
I0
sg39
I0
sg40
I32
sg41
I1
sg42
I29
sbssg49
(dp413
sbssI29
(dp414
g15
g0
(g18
g2
Ntp415
Rp416
(dp417
g22
(lp418
sg24
S'ovs-sw32'
p419
sg26
Nsg27
I32
sg28
Nsg29
Nsg30
Nsg31
(dp420
I0
g411
sI1
g0
(g33
g2
Ntp421
Rp422
(dp423
g37
I10
sg38
I1
sg39
I2
sg40
I33
sg41
I1
sg42
I32
sbssg49
(dp424
sbssI30
(dp425
g15
g0
(g18
g2
Ntp426
Rp427
(dp428
g22
(lp429
sg24
S'ovs-sw33'
p430
sg26
Nsg27
I33
sg28
Nsg29
Nsg30
Nsg31
(dp431
I0
g337
sI1
g400
sI2
g422
ssg49
(dp432
sbssI31
(dp433
g15
g0
(g18
g2
Ntp434
Rp435
(dp436
g22
(lp437
sg24
S'ovs-sw34'
p438
sg26
Nsg27
I34
sg28
Nsg29
Nsg30
Nsg31
(dp439
I0
g82
sI1
g0
(g33
g2
Ntp440
Rp441
(dp442
g37
I10
sg38
I1
sg39
I1
sg40
I35
sg41
I10
sg42
I34
sbsI2
g0
(g33
g2
Ntp443
Rp444
(dp445
g37
I10
sg38
I2
sg39
I0
sg40
I36
sg41
I10
sg42
I34
sbsI3
g0
(g33
g2
Ntp446
Rp447
(dp448
g37
I10
sg38
I3
sg39
I0
sg40
I37
sg41
I10
sg42
I34
sbsI4
g0
(g33
g2
Ntp449
Rp450
(dp451
g37
I10
sg38
I4
sg39
I0
sg40
I38
sg41
I10
sg42
I34
sbsI5
g0
(g33
g2
Ntp452
Rp453
(dp454
g37
I10
sg38
I5
sg39
I0
sg40
I39
sg41
I10
sg42
I34
sbssg49
(dp455
sbssI32
(dp456
g15
g0
(g18
g2
Ntp457
Rp458
(dp459
g22
(lp460
sg24
S'ovs-sw35'
p461
sg26
Nsg27
I35
sg28
Nsg29
Nsg30
Nsg31
(dp462
I0
g79
sI1
g441
sI2
g0
(g33
g2
Ntp463
Rp464
(dp465
g37
I10
sg38
I2
sg39
I0
sg40
I72
sg41
I10
sg42
I35
sbsI3
g0
(g33
g2
Ntp466
Rp467
(dp468
g37
I10
sg38
I3
sg39
I0
sg40
I73
sg41
I10
sg42
I35
sbsI4
g0
(g33
g2
Ntp469
Rp470
(dp471
g37
I10
sg38
I4
sg39
I0
sg40
I74
sg41
I10
sg42
I35
sbsI5
g0
(g33
g2
Ntp472
Rp473
(dp474
g37
I10
sg38
I5
sg39
I0
sg40
I75
sg41
I10
sg42
I35
sbssg49
(dp475
sbssI33
(dp476
g15
g0
(g18
g2
Ntp477
Rp478
(dp479
g22
(lp480
sg24
S'ovs-sw36'
p481
sg26
Nsg27
I36
sg28
Nsg29
Nsg30
Nsg31
(dp482
I0
g444
sI1
g0
(g33
g2
Ntp483
Rp484
(dp485
g37
I10
sg38
I1
sg39
I0
sg40
I40
sg41
I10
sg42
I36
sbsI2
g0
(g33
g2
Ntp486
Rp487
(dp488
g37
I10
sg38
I2
sg39
I0
sg40
I42
sg41
I10
sg42
I36
sbsI3
g0
(g33
g2
Ntp489
Rp490
(dp491
g37
I10
sg38
I3
sg39
I0
sg40
I44
sg41
I10
sg42
I36
sbsI4
g0
(g33
g2
Ntp492
Rp493
(dp494
g37
I10
sg38
I4
sg39
I0
sg40
I46
sg41
I10
sg42
I36
sbssg49
(dp495
sbssI34
(dp496
g15
g0
(g18
g2
Ntp497
Rp498
(dp499
g22
(lp500
sg24
S'ovs-sw37'
p501
sg26
Nsg27
I37
sg28
Nsg29
Nsg30
Nsg31
(dp502
I0
g447
sI1
g0
(g33
g2
Ntp503
Rp504
(dp505
g37
I10
sg38
I1
sg39
I1
sg40
I40
sg41
I10
sg42
I37
sbsI2
g0
(g33
g2
Ntp506
Rp507
(dp508
g37
I10
sg38
I2
sg39
I1
sg40
I42
sg41
I10
sg42
I37
sbsI3
g0
(g33
g2
Ntp509
Rp510
(dp511
g37
I10
sg38
I3
sg39
I1
sg40
I44
sg41
I10
sg42
I37
sbsI4
g0
(g33
g2
Ntp512
Rp513
(dp514
g37
I10
sg38
I4
sg39
I1
sg40
I46
sg41
I10
sg42
I37
sbssg49
(dp515
sbssI35
(dp516
g15
g0
(g18
g2
Ntp517
Rp518
(dp519
g22
(lp520
sg24
S'ovs-sw38'
p521
sg26
Nsg27
I38
sg28
Nsg29
Nsg30
Nsg31
(dp522
I0
g450
sI1
g0
(g33
g2
Ntp523
Rp524
(dp525
g37
I10
sg38
I1
sg39
I0
sg40
I41
sg41
I10
sg42
I38
sbsI2
g0
(g33
g2
Ntp526
Rp527
(dp528
g37
I10
sg38
I2
sg39
I0
sg40
I43
sg41
I10
sg42
I38
sbsI3
g0
(g33
g2
Ntp529
Rp530
(dp531
g37
I10
sg38
I3
sg39
I0
sg40
I45
sg41
I10
sg42
I38
sbsI4
g0
(g33
g2
Ntp532
Rp533
(dp534
g37
I10
sg38
I4
sg39
I0
sg40
I47
sg41
I10
sg42
I38
sbssg49
(dp535
sbssI36
(dp536
g15
g0
(g18
g2
Ntp537
Rp538
(dp539
g22
(lp540
sg24
S'ovs-sw39'
p541
sg26
Nsg27
I39
sg28
Nsg29
Nsg30
Nsg31
(dp542
I0
g453
sI1
g0
(g33
g2
Ntp543
Rp544
(dp545
g37
I10
sg38
I1
sg39
I1
sg40
I41
sg41
I10
sg42
I39
sbsI2
g0
(g33
g2
Ntp546
Rp547
(dp548
g37
I10
sg38
I2
sg39
I1
sg40
I43
sg41
I10
sg42
I39
sbsI3
g0
(g33
g2
Ntp549
Rp550
(dp551
g37
I10
sg38
I3
sg39
I1
sg40
I45
sg41
I10
sg42
I39
sbsI4
g0
(g33
g2
Ntp552
Rp553
(dp554
g37
I10
sg38
I4
sg39
I1
sg40
I47
sg41
I10
sg42
I39
sbssg49
(dp555
sbssI37
(dp556
g15
g0
(g18
g2
Ntp557
Rp558
(dp559
g22
(lp560
sg24
S'ovs-sw40'
p561
sg26
Nsg27
I40
sg28
Nsg29
Nsg30
Nsg31
(dp562
I0
g484
sI1
g504
sI2
g0
(g33
g2
Ntp563
Rp564
(dp565
g37
I10
sg38
I2
sg39
I0
sg40
I48
sg41
I10
sg42
I40
sbsI3
g0
(g33
g2
Ntp566
Rp567
(dp568
g37
I10
sg38
I3
sg39
I0
sg40
I49
sg41
I10
sg42
I40
sbssg49
(dp569
sbssI38
(dp570
g15
g0
(g18
g2
Ntp571
Rp572
(dp573
g22
(lp574
sg24
S'ovs-sw41'
p575
sg26
Nsg27
I41
sg28
Nsg29
Nsg30
Nsg31
(dp576
I0
g524
sI1
g544
sI2
g0
(g33
g2
Ntp577
Rp578
(dp579
g37
I10
sg38
I2
sg39
I1
sg40
I48
sg41
I10
sg42
I41
sbsI3
g0
(g33
g2
Ntp580
Rp581
(dp582
g37
I10
sg38
I3
sg39
I1
sg40
I49
sg41
I10
sg42
I41
sbssg49
(dp583
sbssI39
(dp584
g15
g0
(g18
g2
Ntp585
Rp586
(dp587
g22
(lp588
sg24
S'ovs-sw42'
p589
sg26
Nsg27
I42
sg28
Nsg29
Nsg30
Nsg31
(dp590
I0
g487
sI1
g507
sI2
g0
(g33
g2
Ntp591
Rp592
(dp593
g37
I10
sg38
I2
sg39
I0
sg40
I50
sg41
I10
sg42
I42
sbsI3
g0
(g33
g2
Ntp594
Rp595
(dp596
g37
I10
sg38
I3
sg39
I0
sg40
I51
sg41
I10
sg42
I42
sbssg49
(dp597
sbssI40
(dp598
g15
g0
(g18
g2
Ntp599
Rp600
(dp601
g22
(lp602
sg24
S'ovs-sw43'
p603
sg26
Nsg27
I43
sg28
Nsg29
Nsg30
Nsg31
(dp604
I0
g527
sI1
g547
sI2
g0
(g33
g2
Ntp605
Rp606
(dp607
g37
I10
sg38
I2
sg39
I1
sg40
I50
sg41
I10
sg42
I43
sbsI3
g0
(g33
g2
Ntp608
Rp609
(dp610
g37
I10
sg38
I3
sg39
I1
sg40
I51
sg41
I10
sg42
I43
sbssg49
(dp611
sbssI41
(dp612
g15
g0
(g18
g2
Ntp613
Rp614
(dp615
g22
(lp616
sg24
S'ovs-sw44'
p617
sg26
Nsg27
I44
sg28
Nsg29
Nsg30
Nsg31
(dp618
I0
g490
sI1
g510
sI2
g0
(g33
g2
Ntp619
Rp620
(dp621
g37
I10
sg38
I2
sg39
I0
sg40
I52
sg41
I10
sg42
I44
sbsI3
g0
(g33
g2
Ntp622
Rp623
(dp624
g37
I10
sg38
I3
sg39
I0
sg40
I53
sg41
I10
sg42
I44
sbssg49
(dp625
sbssI42
(dp626
g15
g0
(g18
g2
Ntp627
Rp628
(dp629
g22
(lp630
sg24
S'ovs-sw45'
p631
sg26
Nsg27
I45
sg28
Nsg29
Nsg30
Nsg31
(dp632
I0
g530
sI1
g550
sI2
g0
(g33
g2
Ntp633
Rp634
(dp635
g37
I10
sg38
I2
sg39
I1
sg40
I52
sg41
I10
sg42
I45
sbsI3
g0
(g33
g2
Ntp636
Rp637
(dp638
g37
I10
sg38
I3
sg39
I1
sg40
I53
sg41
I10
sg42
I45
sbssg49
(dp639
sbssI43
(dp640
g15
g0
(g18
g2
Ntp641
Rp642
(dp643
g22
(lp644
sg24
S'ovs-sw46'
p645
sg26
Nsg27
I46
sg28
Nsg29
Nsg30
Nsg31
(dp646
I0
g493
sI1
g513
sI2
g0
(g33
g2
Ntp647
Rp648
(dp649
g37
I10
sg38
I2
sg39
I0
sg40
I54
sg41
I10
sg42
I46
sbsI3
g0
(g33
g2
Ntp650
Rp651
(dp652
g37
I10
sg38
I3
sg39
I0
sg40
I55
sg41
I10
sg42
I46
sbssg49
(dp653
sbssI44
(dp654
g15
g0
(g18
g2
Ntp655
Rp656
(dp657
g22
(lp658
sg24
S'ovs-sw47'
p659
sg26
Nsg27
I47
sg28
Nsg29
Nsg30
Nsg31
(dp660
I0
g533
sI1
g553
sI2
g0
(g33
g2
Ntp661
Rp662
(dp663
g37
I10
sg38
I2
sg39
I1
sg40
I55
sg41
I10
sg42
I47
sbsI3
g0
(g33
g2
Ntp664
Rp665
(dp666
g37
I10
sg38
I3
sg39
I1
sg40
I54
sg41
I10
sg42
I47
sbssg49
(dp667
sbssI45
(dp668
g15
g0
(g18
g2
Ntp669
Rp670
(dp671
g22
(lp672
sg24
S'ovs-sw48'
p673
sg26
Nsg27
I48
sg28
Nsg29
Nsg30
Nsg31
(dp674
I0
g564
sI1
g578
sI2
g0
(g33
g2
Ntp675
Rp676
(dp677
g37
I10
sg38
I2
sg39
I0
sg40
I57
sg41
I10
sg42
I48
sbsI3
g0
(g33
g2
Ntp678
Rp679
(dp680
g37
I10
sg38
I3
sg39
I0
sg40
I56
sg41
I10
sg42
I48
sbssg49
(dp681
sbssI46
(dp682
g15
g0
(g18
g2
Ntp683
Rp684
(dp685
g22
(lp686
sg24
S'ovs-sw49'
p687
sg26
Nsg27
I49
sg28
Nsg29
Nsg30
Nsg31
(dp688
I0
g567
sI1
g581
sI2
g0
(g33
g2
Ntp689
Rp690
(dp691
g37
I10
sg38
I2
sg39
I0
sg40
I58
sg41
I10
sg42
I49
sbsI3
g0
(g33
g2
Ntp692
Rp693
(dp694
g37
I10
sg38
I3
sg39
I0
sg40
I59
sg41
I10
sg42
I49
sbssg49
(dp695
sbssI47
(dp696
g15
g0
(g18
g2
Ntp697
Rp698
(dp699
g22
(lp700
sg24
S'ovs-sw50'
p701
sg26
Nsg27
I50
sg28
Nsg29
Nsg30
Nsg31
(dp702
I0
g592
sI1
g606
sI2
g0
(g33
g2
Ntp703
Rp704
(dp705
g37
I10
sg38
I2
sg39
I0
sg40
I60
sg41
I10
sg42
I50
sbsI3
g0
(g33
g2
Ntp706
Rp707
(dp708
g37
I10
sg38
I3
sg39
I0
sg40
I61
sg41
I10
sg42
I50
sbssg49
(dp709
sbssI48
(dp710
g15
g0
(g18
g2
Ntp711
Rp712
(dp713
g22
(lp714
sg24
S'ovs-sw51'
p715
sg26
Nsg27
I51
sg28
Nsg29
Nsg30
Nsg31
(dp716
I0
g595
sI1
g609
sI2
g0
(g33
g2
Ntp717
Rp718
(dp719
g37
I10
sg38
I2
sg39
I0
sg40
I62
sg41
I10
sg42
I51
sbsI3
g0
(g33
g2
Ntp720
Rp721
(dp722
g37
I10
sg38
I3
sg39
I0
sg40
I63
sg41
I10
sg42
I51
sbssg49
(dp723
sbssI49
(dp724
g15
g0
(g18
g2
Ntp725
Rp726
(dp727
g22
(lp728
sg24
S'ovs-sw52'
p729
sg26
Nsg27
I52
sg28
Nsg29
Nsg30
Nsg31
(dp730
I0
g620
sI1
g634
sI2
g0
(g33
g2
Ntp731
Rp732
(dp733
g37
I10
sg38
I2
sg39
I0
sg40
I64
sg41
I10
sg42
I52
sbsI3
g0
(g33
g2
Ntp734
Rp735
(dp736
g37
I10
sg38
I3
sg39
I0
sg40
I65
sg41
I10
sg42
I52
sbssg49
(dp737
sbssI50
(dp738
g15
g0
(g18
g2
Ntp739
Rp740
(dp741
g22
(lp742
sg24
S'ovs-sw53'
p743
sg26
Nsg27
I53
sg28
Nsg29
Nsg30
Nsg31
(dp744
I0
g623
sI1
g637
sI2
g0
(g33
g2
Ntp745
Rp746
(dp747
g37
I10
sg38
I2
sg39
I0
sg40
I66
sg41
I10
sg42
I53
sbsI3
g0
(g33
g2
Ntp748
Rp749
(dp750
g37
I10
sg38
I3
sg39
I0
sg40
I67
sg41
I10
sg42
I53
sbssg49
(dp751
sbssI51
(dp752
g15
g0
(g18
g2
Ntp753
Rp754
(dp755
g22
(lp756
sg24
S'ovs-sw54'
p757
sg26
Nsg27
I54
sg28
Nsg29
Nsg30
Nsg31
(dp758
I0
g648
sI1
g665
sI2
g0
(g33
g2
Ntp759
Rp760
(dp761
g37
I10
sg38
I2
sg39
I0
sg40
I68
sg41
I10
sg42
I54
sbsI3
g0
(g33
g2
Ntp762
Rp763
(dp764
g37
I10
sg38
I3
sg39
I0
sg40
I69
sg41
I10
sg42
I54
sbssg49
(dp765
sbssI52
(dp766
g15
g0
(g18
g2
Ntp767
Rp768
(dp769
g22
(lp770
sg24
S'ovs-sw55'
p771
sg26
Nsg27
I55
sg28
Nsg29
Nsg30
Nsg31
(dp772
I0
g651
sI1
g662
sI2
g0
(g33
g2
Ntp773
Rp774
(dp775
g37
I10
sg38
I2
sg39
I0
sg40
I71
sg41
I10
sg42
I55
sbsI3
g0
(g33
g2
Ntp776
Rp777
(dp778
g37
I10
sg38
I3
sg39
I0
sg40
I70
sg41
I10
sg42
I55
sbssg49
(dp779
sbssI53
(dp780
g15
g0
(g18
g2
Ntp781
Rp782
(dp783
g22
(lp784
sg24
S'ovs-sw56'
p785
sg26
Nsg27
I56
sg28
Nsg29
Nsg30
Nsg31
(dp786
I0
g679
ssg49
(dp787
sbssI54
(dp788
g15
g0
(g18
g2
Ntp789
Rp790
(dp791
g22
(lp792
sg24
S'ovs-sw57'
p793
sg26
Nsg27
I57
sg28
Nsg29
Nsg30
Nsg31
(dp794
I0
g676
ssg49
(dp795
sbssI55
(dp796
g15
g0
(g18
g2
Ntp797
Rp798
(dp799
g22
(lp800
sg24
S'ovs-sw58'
p801
sg26
Nsg27
I58
sg28
Nsg29
Nsg30
Nsg31
(dp802
I0
g690
ssg49
(dp803
sbssI56
(dp804
g15
g0
(g18
g2
Ntp805
Rp806
(dp807
g22
(lp808
sg24
S'ovs-sw59'
p809
sg26
Nsg27
I59
sg28
Nsg29
Nsg30
Nsg31
(dp810
I0
g693
ssg49
(dp811
sbssI57
(dp812
g15
g0
(g18
g2
Ntp813
Rp814
(dp815
g22
(lp816
sg24
S'ovs-sw60'
p817
sg26
Nsg27
I60
sg28
Nsg29
Nsg30
Nsg31
(dp818
I0
g704
ssg49
(dp819
sbssI58
(dp820
g15
g0
(g18
g2
Ntp821
Rp822
(dp823
g22
(lp824
sg24
S'ovs-sw61'
p825
sg26
Nsg27
I61
sg28
Nsg29
Nsg30
Nsg31
(dp826
I0
g707
ssg49
(dp827
sbssI59
(dp828
g15
g0
(g18
g2
Ntp829
Rp830
(dp831
g22
(lp832
sg24
S'ovs-sw62'
p833
sg26
Nsg27
I62
sg28
Nsg29
Nsg30
Nsg31
(dp834
I0
g718
ssg49
(dp835
sbssI60
(dp836
g15
g0
(g18
g2
Ntp837
Rp838
(dp839
g22
(lp840
sg24
S'ovs-sw63'
p841
sg26
Nsg27
I63
sg28
Nsg29
Nsg30
Nsg31
(dp842
I0
g721
ssg49
(dp843
sbssI61
(dp844
g15
g0
(g18
g2
Ntp845
Rp846
(dp847
g22
(lp848
sg24
S'ovs-sw64'
p849
sg26
Nsg27
I64
sg28
Nsg29
Nsg30
Nsg31
(dp850
I0
g732
ssg49
(dp851
sbssI62
(dp852
g15
g0
(g18
g2
Ntp853
Rp854
(dp855
g22
(lp856
sg24
S'ovs-sw65'
p857
sg26
Nsg27
I65
sg28
Nsg29
Nsg30
Nsg31
(dp858
I0
g735
ssg49
(dp859
sbssI63
(dp860
g15
g0
(g18
g2
Ntp861
Rp862
(dp863
g22
(lp864
sg24
S'ovs-sw66'
p865
sg26
Nsg27
I66
sg28
Nsg29
Nsg30
Nsg31
(dp866
I0
g746
ssg49
(dp867
sbssI64
(dp868
g15
g0
(g18
g2
Ntp869
Rp870
(dp871
g22
(lp872
sg24
S'ovs-sw67'
p873
sg26
Nsg27
I67
sg28
Nsg29
Nsg30
Nsg31
(dp874
I0
g749
ssg49
(dp875
sbssI65
(dp876
g15
g0
(g18
g2
Ntp877
Rp878
(dp879
g22
(lp880
sg24
S'ovs-sw68'
p881
sg26
Nsg27
I68
sg28
Nsg29
Nsg30
Nsg31
(dp882
I0
g760
ssg49
(dp883
sbssI66
(dp884
g15
g0
(g18
g2
Ntp885
Rp886
(dp887
g22
(lp888
sg24
S'ovs-sw69'
p889
sg26
Nsg27
I69
sg28
Nsg29
Nsg30
Nsg31
(dp890
I0
g763
ssg49
(dp891
sbssI67
(dp892
g15
g0
(g18
g2
Ntp893
Rp894
(dp895
g22
(lp896
sg24
S'ovs-sw70'
p897
sg26
Nsg27
I70
sg28
Nsg29
Nsg30
Nsg31
(dp898
I0
g777
ssg49
(dp899
sbssI68
(dp900
g15
g0
(g18
g2
Ntp901
Rp902
(dp903
g22
(lp904
sg24
S'ovs-sw71'
p905
sg26
Nsg27
I71
sg28
Nsg29
Nsg30
Nsg31
(dp906
I0
g774
ssg49
(dp907
sbssI69
(dp908
g15
g0
(g18
g2
Ntp909
Rp910
(dp911
g22
(lp912
sg24
S'ovs-sw72'
p913
sg26
Nsg27
I72
sg28
Nsg29
Nsg30
Nsg31
(dp914
I0
g464
sI1
g0
(g33
g2
Ntp915
Rp916
(dp917
g37
I10
sg38
I1
sg39
I0
sg40
I80
sg41
I10
sg42
I72
sbsI2
g0
(g33
g2
Ntp918
Rp919
(dp920
g37
I10
sg38
I2
sg39
I0
sg40
I82
sg41
I10
sg42
I72
sbsI3
g0
(g33
g2
Ntp921
Rp922
(dp923
g37
I10
sg38
I3
sg39
I0
sg40
I76
sg41
I10
sg42
I72
sbsI4
g0
(g33
g2
Ntp924
Rp925
(dp926
g37
I10
sg38
I4
sg39
I0
sg40
I78
sg41
I10
sg42
I72
sbssg49
(dp927
sbssI70
(dp928
g15
g0
(g18
g2
Ntp929
Rp930
(dp931
g22
(lp932
sg24
S'ovs-sw73'
p933
sg26
Nsg27
I73
sg28
Nsg29
Nsg30
Nsg31
(dp934
I0
g467
sI1
g0
(g33
g2
Ntp935
Rp936
(dp937
g37
I10
sg38
I1
sg39
I1
sg40
I80
sg41
I10
sg42
I73
sbsI2
g0
(g33
g2
Ntp938
Rp939
(dp940
g37
I10
sg38
I2
sg39
I1
sg40
I82
sg41
I10
sg42
I73
sbsI3
g0
(g33
g2
Ntp941
Rp942
(dp943
g37
I10
sg38
I3
sg39
I1
sg40
I76
sg41
I10
sg42
I73
sbsI4
g0
(g33
g2
Ntp944
Rp945
(dp946
g37
I10
sg38
I4
sg39
I1
sg40
I78
sg41
I10
sg42
I73
sbssg49
(dp947
sbssI71
(dp948
g15
g0
(g18
g2
Ntp949
Rp950
(dp951
g22
(lp952
sg24
S'ovs-sw74'
p953
sg26
Nsg27
I74
sg28
Nsg29
Nsg30
Nsg31
(dp954
I0
g470
sI1
g0
(g33
g2
Ntp955
Rp956
(dp957
g37
I10
sg38
I1
sg39
I0
sg40
I81
sg41
I10
sg42
I74
sbsI2
g0
(g33
g2
Ntp958
Rp959
(dp960
g37
I10
sg38
I2
sg39
I0
sg40
I83
sg41
I10
sg42
I74
sbsI3
g0
(g33
g2
Ntp961
Rp962
(dp963
g37
I10
sg38
I3
sg39
I0
sg40
I77
sg41
I10
sg42
I74
sbsI4
g0
(g33
g2
Ntp964
Rp965
(dp966
g37
I10
sg38
I4
sg39
I0
sg40
I79
sg41
I10
sg42
I74
sbssg49
(dp967
sbssI72
(dp968
g15
g0
(g18
g2
Ntp969
Rp970
(dp971
g22
(lp972
sg24
S'ovs-sw75'
p973
sg26
Nsg27
I75
sg28
Nsg29
Nsg30
Nsg31
(dp974
I0
g473
sI1
g0
(g33
g2
Ntp975
Rp976
(dp977
g37
I10
sg38
I1
sg39
I1
sg40
I81
sg41
I10
sg42
I75
sbsI2
g0
(g33
g2
Ntp978
Rp979
(dp980
g37
I10
sg38
I2
sg39
I1
sg40
I83
sg41
I10
sg42
I75
sbsI3
g0
(g33
g2
Ntp981
Rp982
(dp983
g37
I10
sg38
I3
sg39
I1
sg40
I77
sg41
I10
sg42
I75
sbsI4
g0
(g33
g2
Ntp984
Rp985
(dp986
g37
I10
sg38
I4
sg39
I1
sg40
I79
sg41
I10
sg42
I75
sbssg49
(dp987
sbssI73
(dp988
g15
g0
(g18
g2
Ntp989
Rp990
(dp991
g22
(lp992
sg24
S'ovs-sw76'
p993
sg26
Nsg27
I76
sg28
Nsg29
Nsg30
Nsg31
(dp994
I0
g922
sI1
g942
sI2
g0
(g33
g2
Ntp995
Rp996
(dp997
g37
I10
sg38
I2
sg39
I0
sg40
I84
sg41
I10
sg42
I76
sbsI3
g0
(g33
g2
Ntp998
Rp999
(dp1000
g37
I10
sg38
I3
sg39
I0
sg40
I85
sg41
I10
sg42
I76
sbssg49
(dp1001
sbssI74
(dp1002
g15
g0
(g18
g2
Ntp1003
Rp1004
(dp1005
g22
(lp1006
sg24
S'ovs-sw77'
p1007
sg26
Nsg27
I77
sg28
Nsg29
Nsg30
Nsg31
(dp1008
I0
g962
sI1
g982
sI2
g0
(g33
g2
Ntp1009
Rp1010
(dp1011
g37
I10
sg38
I2
sg39
I1
sg40
I84
sg41
I10
sg42
I77
sbsI3
g0
(g33
g2
Ntp1012
Rp1013
(dp1014
g37
I10
sg38
I3
sg39
I1
sg40
I85
sg41
I10
sg42
I77
sbssg49
(dp1015
sbssI75
(dp1016
g15
g0
(g18
g2
Ntp1017
Rp1018
(dp1019
g22
(lp1020
sg24
S'ovs-sw78'
p1021
sg26
Nsg27
I78
sg28
Nsg29
Nsg30
Nsg31
(dp1022
I0
g925
sI1
g945
sI2
g0
(g33
g2
Ntp1023
Rp1024
(dp1025
g37
I10
sg38
I2
sg39
I0
sg40
I86
sg41
I10
sg42
I78
sbsI3
g0
(g33
g2
Ntp1026
Rp1027
(dp1028
g37
I10
sg38
I3
sg39
I0
sg40
I87
sg41
I10
sg42
I78
sbssg49
(dp1029
sbssI76
(dp1030
g15
g0
(g18
g2
Ntp1031
Rp1032
(dp1033
g22
(lp1034
sg24
S'ovs-sw79'
p1035
sg26
Nsg27
I79
sg28
Nsg29
Nsg30
Nsg31
(dp1036
I0
g965
sI1
g985
sI2
g0
(g33
g2
Ntp1037
Rp1038
(dp1039
g37
I10
sg38
I2
sg39
I1
sg40
I86
sg41
I10
sg42
I79
sbsI3
g0
(g33
g2
Ntp1040
Rp1041
(dp1042
g37
I10
sg38
I3
sg39
I1
sg40
I87
sg41
I10
sg42
I79
sbssg49
(dp1043
sbssI77
(dp1044
g15
g0
(g18
g2
Ntp1045
Rp1046
(dp1047
g22
(lp1048
sg24
S'ovs-sw80'
p1049
sg26
Nsg27
I80
sg28
Nsg29
Nsg30
Nsg31
(dp1050
I0
g916
sI1
g936
sI2
g0
(g33
g2
Ntp1051
Rp1052
(dp1053
g37
I10
sg38
I2
sg39
I0
sg40
I88
sg41
I10
sg42
I80
sbsI3
g0
(g33
g2
Ntp1054
Rp1055
(dp1056
g37
I10
sg38
I3
sg39
I0
sg40
I89
sg41
I10
sg42
I80
sbssg49
(dp1057
sbssI78
(dp1058
g15
g0
(g18
g2
Ntp1059
Rp1060
(dp1061
g22
(lp1062
sg24
S'ovs-sw81'
p1063
sg26
Nsg27
I81
sg28
Nsg29
Nsg30
Nsg31
(dp1064
I0
g956
sI1
g976
sI2
g0
(g33
g2
Ntp1065
Rp1066
(dp1067
g37
I10
sg38
I2
sg39
I1
sg40
I88
sg41
I10
sg42
I81
sbsI3
g0
(g33
g2
Ntp1068
Rp1069
(dp1070
g37
I10
sg38
I3
sg39
I1
sg40
I89
sg41
I10
sg42
I81
sbssg49
(dp1071
sbssI79
(dp1072
g15
g0
(g18
g2
Ntp1073
Rp1074
(dp1075
g22
(lp1076
sg24
S'ovs-sw82'
p1077
sg26
Nsg27
I82
sg28
Nsg29
Nsg30
Nsg31
(dp1078
I0
g919
sI1
g939
sI2
g0
(g33
g2
Ntp1079
Rp1080
(dp1081
g37
I10
sg38
I2
sg39
I0
sg40
I90
sg41
I10
sg42
I82
sbsI3
g0
(g33
g2
Ntp1082
Rp1083
(dp1084
g37
I10
sg38
I3
sg39
I0
sg40
I91
sg41
I10
sg42
I82
sbssg49
(dp1085
sbssI80
(dp1086
g15
g0
(g18
g2
Ntp1087
Rp1088
(dp1089
g22
(lp1090
sg24
S'ovs-sw83'
p1091
sg26
Nsg27
I83
sg28
Nsg29
Nsg30
Nsg31
(dp1092
I0
g959
sI1
g979
sI2
g0
(g33
g2
Ntp1093
Rp1094
(dp1095
g37
I10
sg38
I2
sg39
I1
sg40
I91
sg41
I10
sg42
I83
sbsI3
g0
(g33
g2
Ntp1096
Rp1097
(dp1098
g37
I10
sg38
I3
sg39
I1
sg40
I90
sg41
I10
sg42
I83
sbssg49
(dp1099
sbssI81
(dp1100
g15
g0
(g18
g2
Ntp1101
Rp1102
(dp1103
g22
(lp1104
sg24
S'ovs-sw84'
p1105
sg26
Nsg27
I84
sg28
Nsg29
Nsg30
Nsg31
(dp1106
I0
g996
sI1
g1010
sI2
g0
(g33
g2
Ntp1107
Rp1108
(dp1109
g37
I10
sg38
I2
sg39
I0
sg40
I92
sg41
I10
sg42
I84
sbsI3
g0
(g33
g2
Ntp1110
Rp1111
(dp1112
g37
I10
sg38
I3
sg39
I0
sg40
I93
sg41
I10
sg42
I84
sbssg49
(dp1113
sbssI82
(dp1114
g15
g0
(g18
g2
Ntp1115
Rp1116
(dp1117
g22
(lp1118
sg24
S'ovs-sw85'
p1119
sg26
Nsg27
I85
sg28
Nsg29
Nsg30
Nsg31
(dp1120
I0
g999
sI1
g1013
sI2
g0
(g33
g2
Ntp1121
Rp1122
(dp1123
g37
I10
sg38
I2
sg39
I0
sg40
I94
sg41
I10
sg42
I85
sbsI3
g0
(g33
g2
Ntp1124
Rp1125
(dp1126
g37
I10
sg38
I3
sg39
I0
sg40
I95
sg41
I10
sg42
I85
sbssg49
(dp1127
sbssI83
(dp1128
g15
g0
(g18
g2
Ntp1129
Rp1130
(dp1131
g22
(lp1132
sg24
S'ovs-sw86'
p1133
sg26
Nsg27
I86
sg28
Nsg29
Nsg30
Nsg31
(dp1134
I0
g1024
sI1
g1038
sI2
g0
(g33
g2
Ntp1135
Rp1136
(dp1137
g37
I10
sg38
I2
sg39
I0
sg40
I96
sg41
I10
sg42
I86
sbsI3
g0
(g33
g2
Ntp1138
Rp1139
(dp1140
g37
I10
sg38
I3
sg39
I0
sg40
I97
sg41
I10
sg42
I86
sbssg49
(dp1141
sbssI84
(dp1142
g15
g0
(g18
g2
Ntp1143
Rp1144
(dp1145
g22
(lp1146
sg24
S'ovs-sw87'
p1147
sg26
Nsg27
I87
sg28
Nsg29
Nsg30
Nsg31
(dp1148
I0
g1027
sI1
g1041
sI2
g0
(g33
g2
Ntp1149
Rp1150
(dp1151
g37
I10
sg38
I2
sg39
I0
sg40
I98
sg41
I10
sg42
I87
sbsI3
g0
(g33
g2
Ntp1152
Rp1153
(dp1154
g37
I10
sg38
I3
sg39
I0
sg40
I99
sg41
I10
sg42
I87
sbssg49
(dp1155
sbssI85
(dp1156
g15
g0
(g18
g2
Ntp1157
Rp1158
(dp1159
g22
(lp1160
sg24
S'ovs-sw88'
p1161
sg26
Nsg27
I88
sg28
Nsg29
Nsg30
Nsg31
(dp1162
I0
g1052
sI1
g1066
sI2
g0
(g33
g2
Ntp1163
Rp1164
(dp1165
g37
I10
sg38
I2
sg39
I0
sg40
I100
sg41
I10
sg42
I88
sbsI3
g0
(g33
g2
Ntp1166
Rp1167
(dp1168
g37
I10
sg38
I3
sg39
I0
sg40
I101
sg41
I10
sg42
I88
sbssg49
(dp1169
sbssI86
(dp1170
g15
g0
(g18
g2
Ntp1171
Rp1172
(dp1173
g22
(lp1174
sg24
S'ovs-sw89'
p1175
sg26
Nsg27
I89
sg28
Nsg29
Nsg30
Nsg31
(dp1176
I0
g1055
sI1
g1069
sI2
g0
(g33
g2
Ntp1177
Rp1178
(dp1179
g37
I10
sg38
I2
sg39
I0
sg40
I102
sg41
I10
sg42
I89
sbsI3
g0
(g33
g2
Ntp1180
Rp1181
(dp1182
g37
I10
sg38
I3
sg39
I0
sg40
I103
sg41
I10
sg42
I89
sbssg49
(dp1183
sbssI87
(dp1184
g15
g0
(g18
g2
Ntp1185
Rp1186
(dp1187
g22
(lp1188
sg24
S'ovs-sw90'
p1189
sg26
Nsg27
I90
sg28
Nsg29
Nsg30
Nsg31
(dp1190
I0
g1080
sI1
g1097
sI2
g0
(g33
g2
Ntp1191
Rp1192
(dp1193
g37
I10
sg38
I2
sg39
I0
sg40
I104
sg41
I10
sg42
I90
sbsI3
g0
(g33
g2
Ntp1194
Rp1195
(dp1196
g37
I10
sg38
I3
sg39
I0
sg40
I105
sg41
I10
sg42
I90
sbssg49
(dp1197
sbssI88
(dp1198
g15
g0
(g18
g2
Ntp1199
Rp1200
(dp1201
g22
(lp1202
sg24
S'ovs-sw91'
p1203
sg26
Nsg27
I91
sg28
Nsg29
Nsg30
Nsg31
(dp1204
I0
g1083
sI1
g1094
sI2
g0
(g33
g2
Ntp1205
Rp1206
(dp1207
g37
I10
sg38
I2
sg39
I0
sg40
I107
sg41
I10
sg42
I91
sbsI3
g0
(g33
g2
Ntp1208
Rp1209
(dp1210
g37
I10
sg38
I3
sg39
I0
sg40
I106
sg41
I10
sg42
I91
sbssg49
(dp1211
sbssI89
(dp1212
g15
g0
(g18
g2
Ntp1213
Rp1214
(dp1215
g22
(lp1216
sg24
S'ovs-sw92'
p1217
sg26
Nsg27
I92
sg28
Nsg29
Nsg30
Nsg31
(dp1218
I0
g1108
ssg49
(dp1219
sbssI90
(dp1220
g15
g0
(g18
g2
Ntp1221
Rp1222
(dp1223
g22
(lp1224
sg24
S'ovs-sw93'
p1225
sg26
Nsg27
I93
sg28
Nsg29
Nsg30
Nsg31
(dp1226
I0
g1111
ssg49
(dp1227
sbssI91
(dp1228
g15
g0
(g18
g2
Ntp1229
Rp1230
(dp1231
g22
(lp1232
sg24
S'ovs-sw94'
p1233
sg26
Nsg27
I94
sg28
Nsg29
Nsg30
Nsg31
(dp1234
I0
g1122
ssg49
(dp1235
sbssI92
(dp1236
g15
g0
(g18
g2
Ntp1237
Rp1238
(dp1239
g22
(lp1240
sg24
S'ovs-sw95'
p1241
sg26
Nsg27
I95
sg28
Nsg29
Nsg30
Nsg31
(dp1242
I0
g1125
ssg49
(dp1243
sbssI93
(dp1244
g15
g0
(g18
g2
Ntp1245
Rp1246
(dp1247
g22
(lp1248
sg24
S'ovs-sw96'
p1249
sg26
Nsg27
I96
sg28
Nsg29
Nsg30
Nsg31
(dp1250
I0
g1136
ssg49
(dp1251
sbssI94
(dp1252
g15
g0
(g18
g2
Ntp1253
Rp1254
(dp1255
g22
(lp1256
sg24
S'ovs-sw97'
p1257
sg26
Nsg27
I97
sg28
Nsg29
Nsg30
Nsg31
(dp1258
I0
g1139
ssg49
(dp1259
sbssI95
(dp1260
g15
g0
(g18
g2
Ntp1261
Rp1262
(dp1263
g22
(lp1264
sg24
S'ovs-sw98'
p1265
sg26
Nsg27
I98
sg28
Nsg29
Nsg30
Nsg31
(dp1266
I0
g1150
ssg49
(dp1267
sbssI96
(dp1268
g15
g0
(g18
g2
Ntp1269
Rp1270
(dp1271
g22
(lp1272
sg24
S'ovs-sw99'
p1273
sg26
Nsg27
I99
sg28
Nsg29
Nsg30
Nsg31
(dp1274
I0
g1153
ssg49
(dp1275
sbssI97
(dp1276
g15
g0
(g18
g2
Ntp1277
Rp1278
(dp1279
g22
(lp1280
sg24
S'ovs-sw100'
p1281
sg26
Nsg27
I100
sg28
Nsg29
Nsg30
Nsg31
(dp1282
I0
g1164
ssg49
(dp1283
sbssI98
(dp1284
g15
g0
(g18
g2
Ntp1285
Rp1286
(dp1287
g22
(lp1288
sg24
S'ovs-sw101'
p1289
sg26
Nsg27
I101
sg28
Nsg29
Nsg30
Nsg31
(dp1290
I0
g1167
ssg49
(dp1291
sbssI99
(dp1292
g15
g0
(g18
g2
Ntp1293
Rp1294
(dp1295
g22
(lp1296
sg24
S'ovs-sw102'
p1297
sg26
Nsg27
I102
sg28
Nsg29
Nsg30
Nsg31
(dp1298
I0
g1178
ssg49
(dp1299
sbssI100
(dp1300
g15
g0
(g18
g2
Ntp1301
Rp1302
(dp1303
g22
(lp1304
sg24
S'ovs-sw103'
p1305
sg26
Nsg27
I103
sg28
Nsg29
Nsg30
Nsg31
(dp1306
I0
g1181
ssg49
(dp1307
sbssI101
(dp1308
g15
g0
(g18
g2
Ntp1309
Rp1310
(dp1311
g22
(lp1312
sg24
S'ovs-sw104'
p1313
sg26
Nsg27
I104
sg28
Nsg29
Nsg30
Nsg31
(dp1314
I0
g1192
ssg49
(dp1315
sbssI102
(dp1316
g15
g0
(g18
g2
Ntp1317
Rp1318
(dp1319
g22
(lp1320
sg24
S'ovs-sw105'
p1321
sg26
Nsg27
I105
sg28
Nsg29
Nsg30
Nsg31
(dp1322
I0
g1195
ssg49
(dp1323
sbssI103
(dp1324
g15
g0
(g18
g2
Ntp1325
Rp1326
(dp1327
g22
(lp1328
sg24
S'ovs-sw106'
p1329
sg26
Nsg27
I106
sg28
Nsg29
Nsg30
Nsg31
(dp1330
I0
g1209
ssg49
(dp1331
sbssI104
(dp1332
g15
g0
(g18
g2
Ntp1333
Rp1334
(dp1335
g22
(lp1336
sg24
S'ovs-sw107'
p1337
sg26
Nsg27
I107
sg28
Nsg29
Nsg30
Nsg31
(dp1338
I0
g1206
ssg49
(dp1339
sbssI105
(dp1340
g15
g0
(g18
g2
Ntp1341
Rp1342
(dp1343
g22
(lp1344
sg24
S'ovs-sw108'
p1345
sg26
Nsg27
I108
sg28
Nsg29
Nsg30
Nsg31
(dp1346
I0
g102
sI1
g0
(g33
g2
Ntp1347
Rp1348
(dp1349
g37
I10
sg38
I1
sg39
I0
sg40
I114
sg41
I1
sg42
I108
sbsI2
g0
(g33
g2
Ntp1350
Rp1351
(dp1352
g37
I10
sg38
I2
sg39
I1
sg40
I109
sg41
I1
sg42
I108
sbssg49
(dp1353
sbssI106
(dp1354
g15
g0
(g18
g2
Ntp1355
Rp1356
(dp1357
g22
(lp1358
sg24
S'ovs-sw109'
p1359
sg26
Nsg27
I109
sg28
Nsg29
Nsg30
Nsg31
(dp1360
I0
g105
sI1
g1351
sI2
g0
(g33
g2
Ntp1361
Rp1362
(dp1363
g37
I10
sg38
I2
sg39
I0
sg40
I116
sg41
I1
sg42
I109
sbssg49
(dp1364
sbssI107
(dp1365
g15
g0
(g18
g2
Ntp1366
Rp1367
(dp1368
g22
(lp1369
sg24
S'ovs-sw110'
p1370
sg26
Nsg27
I110
sg28
Nsg29
Nsg30
Nsg31
(dp1371
I0
g0
(g33
g2
Ntp1372
Rp1373
(dp1374
g37
I10
sg38
I0
sg39
I1
sg40
I114
sg41
I1
sg42
I110
sbssg49
(dp1375
sbssI108
(dp1376
g15
g0
(g18
g2
Ntp1377
Rp1378
(dp1379
g22
(lp1380
sg24
S'ovs-sw111'
p1381
sg26
Nsg27
I111
sg28
Nsg29
Nsg30
Nsg31
(dp1382
I0
g0
(g33
g2
Ntp1383
Rp1384
(dp1385
g37
I10
sg38
I0
sg39
I0
sg40
I112
sg41
I1
sg42
I111
sbsI1
g0
(g33
g2
Ntp1386
Rp1387
(dp1388
g37
I10
sg38
I1
sg39
I2
sg40
I114
sg41
I1
sg42
I111
sbssg49
(dp1389
sbssI109
(dp1390
g15
g0
(g18
g2
Ntp1391
Rp1392
(dp1393
g22
(lp1394
sg24
S'ovs-sw112'
p1395
sg26
Nsg27
I112
sg28
Nsg29
Nsg30
Nsg31
(dp1396
I0
g1384
sI1
g0
(g33
g2
Ntp1397
Rp1398
(dp1399
g37
I10
sg38
I1
sg39
I0
sg40
I113
sg41
I1
sg42
I112
sbsI2
g0
(g33
g2
Ntp1400
Rp1401
(dp1402
g37
I10
sg38
I2
sg39
I3
sg40
I114
sg41
I1
sg42
I112
sbssg49
(dp1403
sbssI110
(dp1404
g15
g0
(g18
g2
Ntp1405
Rp1406
(dp1407
g22
(lp1408
sg24
S'ovs-sw113'
p1409
sg26
Nsg27
I113
sg28
Nsg29
Nsg30
Nsg31
(dp1410
I0
g1398
ssg49
(dp1411
sbssI111
(dp1412
g15
g0
(g18
g2
Ntp1413
Rp1414
(dp1415
g22
(lp1416
sg24
S'ovs-sw114'
p1417
sg26
Nsg27
I114
sg28
Nsg29
Nsg30
Nsg31
(dp1418
I0
g1348
sI1
g1373
sI2
g1387
sI3
g1401
ssg49
(dp1419
sbssI112
(dp1420
g15
g0
(g18
g2
Ntp1421
Rp1422
(dp1423
g22
(lp1424
sg24
S'ovs-sw116'
p1425
sg26
Nsg27
I116
sg28
Nsg29
Nsg30
Nsg31
(dp1426
I0
g1362
sI1
g0
(g33
g2
Ntp1427
Rp1428
(dp1429
g37
I10
sg38
I1
sg39
I0
sg40
I118
sg41
I1
sg42
I116
sbsI2
g0
(g33
g2
Ntp1430
Rp1431
(dp1432
g37
I10
sg38
I2
sg39
I0
sg40
I119
sg41
I1
sg42
I116
sbssg49
(dp1433
sbssI113
(dp1434
g15
g0
(g18
g2
Ntp1435
Rp1436
(dp1437
g22
(lp1438
sg24
S'ovs-sw118'
p1439
sg26
Nsg27
I118
sg28
Nsg29
Nsg30
Nsg31
(dp1440
I0
g1428
ssg49
(dp1441
sbssI114
(dp1442
g15
g0
(g18
g2
Ntp1443
Rp1444
(dp1445
g22
(lp1446
sg24
S'ovs-sw119'
p1447
sg26
Nsg27
I119
sg28
Nsg29
Nsg30
Nsg31
(dp1448
I0
g1431
ssg49
(dp1449
sbssI115
(dp1450
g15
g0
(g18
g2
Ntp1451
Rp1452
(dp1453
g22
(lp1454
sg24
S'ovs-sw120'
p1455
sg26
Nsg27
I120
sg28
Nsg29
Nsg30
Nsg31
(dp1456
I0
g116
sI1
g0
(g33
g2
Ntp1457
Rp1458
(dp1459
g37
I10
sg38
I1
sg39
I0
sg40
I136
sg41
I10
sg42
I120
sbsI2
g0
(g33
g2
Ntp1460
Rp1461
(dp1462
g37
I10
sg38
I2
sg39
I1
sg40
I121
sg41
I10
sg42
I120
sbsI3
g0
(g33
g2
Ntp1463
Rp1464
(dp1465
g37
I10
sg38
I3
sg39
I0
sg40
I134
sg41
I10
sg42
I120
sbsI4
g0
(g33
g2
Ntp1466
Rp1467
(dp1468
g37
I10
sg38
I4
sg39
I0
sg40
I135
sg41
I10
sg42
I120
sbssg49
(dp1469
sbssI116
(dp1470
g15
g0
(g18
g2
Ntp1471
Rp1472
(dp1473
g22
(lp1474
sg24
S'ovs-sw121'
p1475
sg26
Nsg27
I121
sg28
Nsg29
Nsg30
Nsg31
(dp1476
I0
g119
sI1
g1461
sI2
g0
(g33
g2
Ntp1477
Rp1478
(dp1479
g37
I10
sg38
I2
sg39
I0
sg40
I149
sg41
I10
sg42
I121
sbsI3
g0
(g33
g2
Ntp1480
Rp1481
(dp1482
g37
I10
sg38
I3
sg39
I0
sg40
I150
sg41
I10
sg42
I121
sbsI4
g0
(g33
g2
Ntp1483
Rp1484
(dp1485
g37
I10
sg38
I4
sg39
I0
sg40
I151
sg41
I10
sg42
I121
sbssg49
(dp1486
sbssI117
(dp1487
g15
g0
(g18
g2
Ntp1488
Rp1489
(dp1490
g22
(lp1491
sg24
S'ovs-sw122'
p1492
sg26
Nsg27
I122
sg28
Nsg29
Nsg30
Nsg31
(dp1493
I0
g0
(g33
g2
Ntp1494
Rp1495
(dp1496
g37
I10
sg38
I0
sg39
I0
sg40
I131
sg41
I10
sg42
I122
sbsI1
g0
(g33
g2
Ntp1497
Rp1498
(dp1499
g37
I10
sg38
I1
sg39
I1
sg40
I134
sg41
I10
sg42
I122
sbssg49
(dp1500
sbssI118
(dp1501
g15
g0
(g18
g2
Ntp1502
Rp1503
(dp1504
g22
(lp1505
sg24
S'ovs-sw123'
p1506
sg26
Nsg27
I123
sg28
Nsg29
Nsg30
Nsg31
(dp1507
I0
g0
(g33
g2
Ntp1508
Rp1509
(dp1510
g37
I10
sg38
I0
sg39
I1
sg40
I131
sg41
I10
sg42
I123
sbsI1
g0
(g33
g2
Ntp1511
Rp1512
(dp1513
g37
I10
sg38
I1
sg39
I1
sg40
I135
sg41
I10
sg42
I123
sbssg49
(dp1514
sbssI119
(dp1515
g15
g0
(g18
g2
Ntp1516
Rp1517
(dp1518
g22
(lp1519
sg24
S'ovs-sw124'
p1520
sg26
Nsg27
I124
sg28
Nsg29
Nsg30
Nsg31
(dp1521
I0
g0
(g33
g2
Ntp1522
Rp1523
(dp1524
g37
I10
sg38
I0
sg39
I1
sg40
I136
sg41
I10
sg42
I124
sbsI1
g0
(g33
g2
Ntp1525
Rp1526
(dp1527
g37
I10
sg38
I1
sg39
I2
sg40
I131
sg41
I10
sg42
I124
sbssg49
(dp1528
sbssI120
(dp1529
g15
g0
(g18
g2
Ntp1530
Rp1531
(dp1532
g22
(lp1533
sg24
S'ovs-sw125'
p1534
sg26
Nsg27
I125
sg28
Nsg29
Nsg30
Nsg31
(dp1535
I0
g0
(g33
g2
Ntp1536
Rp1537
(dp1538
g37
I10
sg38
I0
sg39
I0
sg40
I132
sg41
I10
sg42
I125
sbsI1
g0
(g33
g2
Ntp1539
Rp1540
(dp1541
g37
I10
sg38
I1
sg39
I2
sg40
I134
sg41
I10
sg42
I125
sbssg49
(dp1542
sbssI121
(dp1543
g15
g0
(g18
g2
Ntp1544
Rp1545
(dp1546
g22
(lp1547
sg24
S'ovs-sw126'
p1548
sg26
Nsg27
I126
sg28
Nsg29
Nsg30
Nsg31
(dp1549
I0
g0
(g33
g2
Ntp1550
Rp1551
(dp1552
g37
I10
sg38
I0
sg39
I1
sg40
I132
sg41
I10
sg42
I126
sbsI1
g0
(g33
g2
Ntp1553
Rp1554
(dp1555
g37
I10
sg38
I1
sg39
I2
sg40
I135
sg41
I10
sg42
I126
sbssg49
(dp1556
sbssI122
(dp1557
g15
g0
(g18
g2
Ntp1558
Rp1559
(dp1560
g22
(lp1561
sg24
S'ovs-sw127'
p1562
sg26
Nsg27
I127
sg28
Nsg29
Nsg30
Nsg31
(dp1563
I0
g0
(g33
g2
Ntp1564
Rp1565
(dp1566
g37
I10
sg38
I0
sg39
I2
sg40
I136
sg41
I10
sg42
I127
sbsI1
g0
(g33
g2
Ntp1567
Rp1568
(dp1569
g37
I10
sg38
I1
sg39
I2
sg40
I132
sg41
I10
sg42
I127
sbssg49
(dp1570
sbssI123
(dp1571
g15
g0
(g18
g2
Ntp1572
Rp1573
(dp1574
g22
(lp1575
sg24
S'ovs-sw128'
p1576
sg26
Nsg27
I128
sg28
Nsg29
Nsg30
Nsg31
(dp1577
I0
g0
(g33
g2
Ntp1578
Rp1579
(dp1580
g37
I10
sg38
I0
sg39
I0
sg40
I133
sg41
I10
sg42
I128
sbsI1
g0
(g33
g2
Ntp1581
Rp1582
(dp1583
g37
I10
sg38
I1
sg39
I3
sg40
I134
sg41
I10
sg42
I128
sbssg49
(dp1584
sbssI124
(dp1585
g15
g0
(g18
g2
Ntp1586
Rp1587
(dp1588
g22
(lp1589
sg24
S'ovs-sw129'
p1590
sg26
Nsg27
I129
sg28
Nsg29
Nsg30
Nsg31
(dp1591
I0
g0
(g33
g2
Ntp1592
Rp1593
(dp1594
g37
I10
sg38
I0
sg39
I1
sg40
I133
sg41
I10
sg42
I129
sbsI1
g0
(g33
g2
Ntp1595
Rp1596
(dp1597
g37
I10
sg38
I1
sg39
I3
sg40
I135
sg41
I10
sg42
I129
sbssg49
(dp1598
sbssI125
(dp1599
g15
g0
(g18
g2
Ntp1600
Rp1601
(dp1602
g22
(lp1603
sg24
S'ovs-sw130'
p1604
sg26
Nsg27
I130
sg28
Nsg29
Nsg30
Nsg31
(dp1605
I0
g0
(g33
g2
Ntp1606
Rp1607
(dp1608
g37
I10
sg38
I0
sg39
I3
sg40
I136
sg41
I10
sg42
I130
sbsI1
g0
(g33
g2
Ntp1609
Rp1610
(dp1611
g37
I10
sg38
I1
sg39
I2
sg40
I133
sg41
I10
sg42
I130
sbssg49
(dp1612
sbssI126
(dp1613
g15
g0
(g18
g2
Ntp1614
Rp1615
(dp1616
g22
(lp1617
sg24
S'ovs-sw131'
p1618
sg26
Nsg27
I131
sg28
Nsg29
Nsg30
Nsg31
(dp1619
I0
g1495
sI1
g1509
sI2
g1526
ssg49
(dp1620
sbssI127
(dp1621
g15
g0
(g18
g2
Ntp1622
Rp1623
(dp1624
g22
(lp1625
sg24
S'ovs-sw132'
p1626
sg26
Nsg27
I132
sg28
Nsg29
Nsg30
Nsg31
(dp1627
I0
g1537
sI1
g1551
sI2
g1568
ssg49
(dp1628
sbssI128
(dp1629
g15
g0
(g18
g2
Ntp1630
Rp1631
(dp1632
g22
(lp1633
sg24
S'ovs-sw133'
p1634
sg26
Nsg27
I133
sg28
Nsg29
Nsg30
Nsg31
(dp1635
I0
g1579
sI1
g1593
sI2
g1610
ssg49
(dp1636
sbssI129
(dp1637
g15
g0
(g18
g2
Ntp1638
Rp1639
(dp1640
g22
(lp1641
sg24
S'ovs-sw134'
p1642
sg26
Nsg27
I134
sg28
Nsg29
Nsg30
Nsg31
(dp1643
I0
g1464
sI1
g1498
sI2
g1540
sI3
g1582
ssg49
(dp1644
sbssI130
(dp1645
g15
g0
(g18
g2
Ntp1646
Rp1647
(dp1648
g22
(lp1649
sg24
S'ovs-sw135'
p1650
sg26
Nsg27
I135
sg28
Nsg29
Nsg30
Nsg31
(dp1651
I0
g1467
sI1
g1512
sI2
g1554
sI3
g1596
ssg49
(dp1652
sbssI131
(dp1653
g15
g0
(g18
g2
Ntp1654
Rp1655
(dp1656
g22
(lp1657
sg24
S'ovs-sw136'
p1658
sg26
Nsg27
I136
sg28
Nsg29
Nsg30
Nsg31
(dp1659
I0
g1458
sI1
g1523
sI2
g1565
sI3
g1607
ssg49
(dp1660
sbssI132
(dp1661
g15
g0
(g18
g2
Ntp1662
Rp1663
(dp1664
g22
(lp1665
sg24
S'ovs-sw137'
p1666
sg26
Nsg27
I137
sg28
Nsg29
Nsg30
Nsg31
(dp1667
I0
g0
(g33
g2
Ntp1668
Rp1669
(dp1670
g37
I10
sg38
I0
sg39
I0
sg40
I146
sg41
I10
sg42
I137
sbsI1
g0
(g33
g2
Ntp1671
Rp1672
(dp1673
g37
I10
sg38
I1
sg39
I1
sg40
I149
sg41
I10
sg42
I137
sbssg49
(dp1674
sbssI133
(dp1675
g15
g0
(g18
g2
Ntp1676
Rp1677
(dp1678
g22
(lp1679
sg24
S'ovs-sw138'
p1680
sg26
Nsg27
I138
sg28
Nsg29
Nsg30
Nsg31
(dp1681
I0
g0
(g33
g2
Ntp1682
Rp1683
(dp1684
g37
I10
sg38
I0
sg39
I1
sg40
I146
sg41
I10
sg42
I138
sbsI1
g0
(g33
g2
Ntp1685
Rp1686
(dp1687
g37
I10
sg38
I1
sg39
I1
sg40
I150
sg41
I10
sg42
I138
sbssg49
(dp1688
sbssI134
(dp1689
g15
g0
(g18
g2
Ntp1690
Rp1691
(dp1692
g22
(lp1693
sg24
S'ovs-sw139'
p1694
sg26
Nsg27
I139
sg28
Nsg29
Nsg30
Nsg31
(dp1695
I0
g0
(g33
g2
Ntp1696
Rp1697
(dp1698
g37
I10
sg38
I0
sg39
I2
sg40
I146
sg41
I10
sg42
I139
sbsI1
g0
(g33
g2
Ntp1699
Rp1700
(dp1701
g37
I10
sg38
I1
sg39
I1
sg40
I151
sg41
I10
sg42
I139
sbssg49
(dp1702
sbssI135
(dp1703
g15
g0
(g18
g2
Ntp1704
Rp1705
(dp1706
g22
(lp1707
sg24
S'ovs-sw140'
p1708
sg26
Nsg27
I140
sg28
Nsg29
Nsg30
Nsg31
(dp1709
I0
g0
(g33
g2
Ntp1710
Rp1711
(dp1712
g37
I10
sg38
I0
sg39
I0
sg40
I147
sg41
I10
sg42
I140
sbsI1
g0
(g33
g2
Ntp1713
Rp1714
(dp1715
g37
I10
sg38
I1
sg39
I2
sg40
I149
sg41
I10
sg42
I140
sbssg49
(dp1716
sbssI136
(dp1717
g15
g0
(g18
g2
Ntp1718
Rp1719
(dp1720
g22
(lp1721
sg24
S'ovs-sw141'
p1722
sg26
Nsg27
I141
sg28
Nsg29
Nsg30
Nsg31
(dp1723
I0
g0
(g33
g2
Ntp1724
Rp1725
(dp1726
g37
I10
sg38
I0
sg39
I1
sg40
I147
sg41
I10
sg42
I141
sbsI1
g0
(g33
g2
Ntp1727
Rp1728
(dp1729
g37
I10
sg38
I1
sg39
I2
sg40
I150
sg41
I10
sg42
I141
sbssg49
(dp1730
sbssI137
(dp1731
g15
g0
(g18
g2
Ntp1732
Rp1733
(dp1734
g22
(lp1735
sg24
S'ovs-sw142'
p1736
sg26
Nsg27
I142
sg28
Nsg29
Nsg30
Nsg31
(dp1737
I0
g0
(g33
g2
Ntp1738
Rp1739
(dp1740
g37
I10
sg38
I0
sg39
I2
sg40
I147
sg41
I10
sg42
I142
sbsI1
g0
(g33
g2
Ntp1741
Rp1742
(dp1743
g37
I10
sg38
I1
sg39
I2
sg40
I151
sg41
I10
sg42
I142
sbssg49
(dp1744
sbssI138
(dp1745
g15
g0
(g18
g2
Ntp1746
Rp1747
(dp1748
g22
(lp1749
sg24
S'ovs-sw143'
p1750
sg26
Nsg27
I143
sg28
Nsg29
Nsg30
Nsg31
(dp1751
I0
g0
(g33
g2
Ntp1752
Rp1753
(dp1754
g37
I10
sg38
I0
sg39
I0
sg40
I148
sg41
I10
sg42
I143
sbsI1
g0
(g33
g2
Ntp1755
Rp1756
(dp1757
g37
I10
sg38
I1
sg39
I3
sg40
I149
sg41
I10
sg42
I143
sbssg49
(dp1758
sbssI139
(dp1759
g15
g0
(g18
g2
Ntp1760
Rp1761
(dp1762
g22
(lp1763
sg24
S'ovs-sw144'
p1764
sg26
Nsg27
I144
sg28
Nsg29
Nsg30
Nsg31
(dp1765
I0
g0
(g33
g2
Ntp1766
Rp1767
(dp1768
g37
I10
sg38
I0
sg39
I1
sg40
I148
sg41
I10
sg42
I144
sbsI1
g0
(g33
g2
Ntp1769
Rp1770
(dp1771
g37
I10
sg38
I1
sg39
I3
sg40
I150
sg41
I10
sg42
I144
sbssg49
(dp1772
sbssI140
(dp1773
g15
g0
(g18
g2
Ntp1774
Rp1775
(dp1776
g22
(lp1777
sg24
S'ovs-sw145'
p1778
sg26
Nsg27
I145
sg28
Nsg29
Nsg30
Nsg31
(dp1779
I0
g0
(g33
g2
Ntp1780
Rp1781
(dp1782
g37
I10
sg38
I0
sg39
I2
sg40
I148
sg41
I10
sg42
I145
sbsI1
g0
(g33
g2
Ntp1783
Rp1784
(dp1785
g37
I10
sg38
I1
sg39
I3
sg40
I151
sg41
I10
sg42
I145
sbssg49
(dp1786
sbssI141
(dp1787
g15
g0
(g18
g2
Ntp1788
Rp1789
(dp1790
g22
(lp1791
sg24
S'ovs-sw146'
p1792
sg26
Nsg27
I146
sg28
Nsg29
Nsg30
Nsg31
(dp1793
I0
g1669
sI1
g1683
sI2
g1697
ssg49
(dp1794
sbssI142
(dp1795
g15
g0
(g18
g2
Ntp1796
Rp1797
(dp1798
g22
(lp1799
sg24
S'ovs-sw147'
p1800
sg26
Nsg27
I147
sg28
Nsg29
Nsg30
Nsg31
(dp1801
I0
g1711
sI1
g1725
sI2
g1739
ssg49
(dp1802
sbssI143
(dp1803
g15
g0
(g18
g2
Ntp1804
Rp1805
(dp1806
g22
(lp1807
sg24
S'ovs-sw148'
p1808
sg26
Nsg27
I148
sg28
Nsg29
Nsg30
Nsg31
(dp1809
I0
g1753
sI1
g1767
sI2
g1781
ssg49
(dp1810
sbssI144
(dp1811
g15
g0
(g18
g2
Ntp1812
Rp1813
(dp1814
g22
(lp1815
sg24
S'ovs-sw149'
p1816
sg26
Nsg27
I149
sg28
Nsg29
Nsg30
Nsg31
(dp1817
I0
g1478
sI1
g1672
sI2
g1714
sI3
g1756
ssg49
(dp1818
sbssI145
(dp1819
g15
g0
(g18
g2
Ntp1820
Rp1821
(dp1822
g22
(lp1823
sg24
S'ovs-sw150'
p1824
sg26
Nsg27
I150
sg28
Nsg29
Nsg30
Nsg31
(dp1825
I0
g1481
sI1
g1686
sI2
g1728
sI3
g1770
ssg49
(dp1826
sbssI146
(dp1827
g15
g0
(g18
g2
Ntp1828
Rp1829
(dp1830
g22
(lp1831
sg24
S'ovs-sw151'
p1832
sg26
Nsg27
I151
sg28
Nsg29
Nsg30
Nsg31
(dp1833
I0
g1484
sI1
g1700
sI2
g1742
sI3
g1784
ssg49
(dp1834
sbssI147
(dp1835
g15
g0
(g18
g2
Ntp1836
Rp1837
(dp1838
g22
(lp1839
sg24
S'ovs-sw152'
p1840
sg26
Nsg27
I152
sg28
Nsg29
Nsg30
Nsg31
(dp1841
I0
g133
sI1
g0
(g33
g2
Ntp1842
Rp1843
(dp1844
g37
I10
sg38
I1
sg39
I1
sg40
I153
sg41
I1
sg42
I152
sbsI2
g0
(g33
g2
Ntp1845
Rp1846
(dp1847
g37
I10
sg38
I2
sg39
I0
sg40
I154
sg41
I1
sg42
I152
sbssg49
(dp1848
sbssI148
(dp1849
g15
g0
(g18
g2
Ntp1850
Rp1851
(dp1852
g22
(lp1853
sg24
S'ovs-sw153'
p1854
sg26
Nsg27
I153
sg28
Nsg29
Nsg30
Nsg31
(dp1855
I0
g136
sI1
g1843
sI2
g0
(g33
g2
Ntp1856
Rp1857
(dp1858
g37
I10
sg38
I2
sg39
I0
sg40
I157
sg41
I1
sg42
I153
sbssg49
(dp1859
sbssI149
(dp1860
g15
g0
(g18
g2
Ntp1861
Rp1862
(dp1863
g22
(lp1864
sg24
S'ovs-sw154'
p1865
sg26
Nsg27
I154
sg28
Nsg29
Nsg30
Nsg31
(dp1866
I0
g1846
sI1
g0
(g33
g2
Ntp1867
Rp1868
(dp1869
g37
I10
sg38
I1
sg39
I0
sg40
I155
sg41
I1
sg42
I154
sbssg49
(dp1870
sbssI150
(dp1871
g15
g0
(g18
g2
Ntp1872
Rp1873
(dp1874
g22
(lp1875
sg24
S'ovs-sw155'
p1876
sg26
Nsg27
I155
sg28
Nsg29
Nsg30
Nsg31
(dp1877
I0
g1868
ssg49
(dp1878
sbssI151
(dp1879
g15
g0
(g18
g2
Ntp1880
Rp1881
(dp1882
g22
(lp1883
sg24
S'ovs-sw156'
p1884
sg26
Nsg27
I156
sg28
Nsg29
Nsg30
Nsg31
(dp1885
I0
g0
(g33
g2
Ntp1886
Rp1887
(dp1888
g37
I10
sg38
I0
sg39
I1
sg40
I157
sg41
I1
sg42
I156
sbssg49
(dp1889
sbssI152
(dp1890
g15
g0
(g18
g2
Ntp1891
Rp1892
(dp1893
g22
(lp1894
sg24
S'ovs-sw157'
p1895
sg26
Nsg27
I157
sg28
Nsg29
Nsg30
Nsg31
(dp1896
I0
g1857
sI1
g1887
sI2
g0
(g33
g2
Ntp1897
Rp1898
(dp1899
g37
I10
sg38
I2
sg39
I0
sg40
I158
sg41
I1
sg42
I157
sbssg49
(dp1900
sbssI153
(dp1901
g15
g0
(g18
g2
Ntp1902
Rp1903
(dp1904
g22
(lp1905
sg24
S'ovs-sw158'
p1906
sg26
Nsg27
I158
sg28
Nsg29
Nsg30
Nsg31
(dp1907
I0
g1898
ssg49
(dp1908
sbssI154
(dp1909
g15
g0
(g18
g2
Ntp1910
Rp1911
(dp1912
g22
(lp1913
sg24
S'ovs-sw159'
p1914
sg26
Nsg27
I159
sg28
Nsg29
Nsg30
Nsg31
(dp1915
I0
g156
sI1
g0
(g33
g2
Ntp1916
Rp1917
(dp1918
g37
I10
sg38
I1
sg39
I1
sg40
I160
sg41
I1
sg42
I159
sbsI2
g0
(g33
g2
Ntp1919
Rp1920
(dp1921
g37
I10
sg38
I2
sg39
I0
sg40
I164
sg41
I1
sg42
I159
sbssg49
(dp1922
sbssI155
(dp1923
g15
g0
(g18
g2
Ntp1924
Rp1925
(dp1926
g22
(lp1927
sg24
S'ovs-sw160'
p1928
sg26
Nsg27
I160
sg28
Nsg29
Nsg30
Nsg31
(dp1929
I0
g150
sI1
g1917
sI2
g0
(g33
g2
Ntp1930
Rp1931
(dp1932
g37
I10
sg38
I2
sg39
I0
sg40
I166
sg41
I1
sg42
I160
sbssg49
(dp1933
sbssI156
(dp1934
g15
g0
(g18
g2
Ntp1935
Rp1936
(dp1937
g22
(lp1938
sg24
S'ovs-sw161'
p1939
sg26
Nsg27
I161
sg28
Nsg29
Nsg30
Nsg31
(dp1940
I0
g0
(g33
g2
Ntp1941
Rp1942
(dp1943
g37
I10
sg38
I0
sg39
I1
sg40
I164
sg41
I1
sg42
I161
sbssg49
(dp1944
sbssI157
(dp1945
g15
g0
(g18
g2
Ntp1946
Rp1947
(dp1948
g22
(lp1949
sg24
S'ovs-sw162'
p1950
sg26
Nsg27
I162
sg28
Nsg29
Nsg30
Nsg31
(dp1951
I0
g0
(g33
g2
Ntp1952
Rp1953
(dp1954
g37
I10
sg38
I0
sg39
I0
sg40
I163
sg41
I1
sg42
I162
sbssg49
(dp1955
sbssI158
(dp1956
g15
g0
(g18
g2
Ntp1957
Rp1958
(dp1959
g22
(lp1960
sg24
S'ovs-sw163'
p1961
sg26
Nsg27
I163
sg28
Nsg29
Nsg30
Nsg31
(dp1962
I0
g1953
sI1
g0
(g33
g2
Ntp1963
Rp1964
(dp1965
g37
I10
sg38
I1
sg39
I2
sg40
I164
sg41
I1
sg42
I163
sbssg49
(dp1966
sbssI159
(dp1967
g15
g0
(g18
g2
Ntp1968
Rp1969
(dp1970
g22
(lp1971
sg24
S'ovs-sw164'
p1972
sg26
Nsg27
I164
sg28
Nsg29
Nsg30
Nsg31
(dp1973
I0
g1920
sI1
g1942
sI2
g1964
ssg49
(dp1974
sbssI160
(dp1975
g15
g0
(g18
g2
Ntp1976
Rp1977
(dp1978
g22
(lp1979
sg24
S'ovs-sw165'
p1980
sg26
Nsg27
I165
sg28
Nsg29
Nsg30
Nsg31
(dp1981
I0
g0
(g33
g2
Ntp1982
Rp1983
(dp1984
g37
I10
sg38
I0
sg39
I1
sg40
I166
sg41
I1
sg42
I165
sbssg49
(dp1985
sbssI161
(dp1986
g15
g0
(g18
g2
Ntp1987
Rp1988
(dp1989
g22
(lp1990
sg24
S'ovs-sw166'
p1991
sg26
Nsg27
I166
sg28
Nsg29
Nsg30
Nsg31
(dp1992
I0
g1931
sI1
g1983
sI2
g0
(g33
g2
Ntp1993
Rp1994
(dp1995
g37
I10
sg38
I2
sg39
I0
sg40
I168
sg41
I1
sg42
I166
sbssg49
(dp1996
sbssI162
(dp1997
g15
g0
(g18
g2
Ntp1998
Rp1999
(dp2000
g22
(lp2001
sg24
S'ovs-sw167'
p2002
sg26
Nsg27
I167
sg28
Nsg29
Nsg30
Nsg31
(dp2003
I0
g0
(g33
g2
Ntp2004
Rp2005
(dp2006
g37
I10
sg38
I0
sg39
I1
sg40
I168
sg41
I1
sg42
I167
sbssg49
(dp2007
sbssI163
(dp2008
g15
g0
(g18
g2
Ntp2009
Rp2010
(dp2011
g22
(lp2012
sg24
S'ovs-sw168'
p2013
sg26
Nsg27
I168
sg28
Nsg29
Nsg30
Nsg31
(dp2014
I0
g1994
sI1
g2005
ssg49
(dp2015
sbssI164
(dp2016
g15
g0
(g18
g2
Ntp2017
Rp2018
(dp2019
g22
(lp2020
sg24
S'ovs-sw169'
p2021
sg26
Nsg27
I169
sg28
Nsg29
Nsg30
Nsg31
(dp2022
I0
g167
sI1
g0
(g33
g2
Ntp2023
Rp2024
(dp2025
g37
I10
sg38
I1
sg39
I1
sg40
I170
sg41
I1
sg42
I169
sbsI2
g0
(g33
g2
Ntp2026
Rp2027
(dp2028
g37
I10
sg38
I2
sg39
I0
sg40
I171
sg41
I1
sg42
I169
sbssg49
(dp2029
sbssI165
(dp2030
g15
g0
(g18
g2
Ntp2031
Rp2032
(dp2033
g22
(lp2034
sg24
S'ovs-sw170'
p2035
sg26
Nsg27
I170
sg28
Nsg29
Nsg30
Nsg31
(dp2036
I0
g170
sI1
g2024
sI2
g0
(g33
g2
Ntp2037
Rp2038
(dp2039
g37
I10
sg38
I2
sg39
I0
sg40
I174
sg41
I1
sg42
I170
sbssg49
(dp2040
sbssI166
(dp2041
g15
g0
(g18
g2
Ntp2042
Rp2043
(dp2044
g22
(lp2045
sg24
S'ovs-sw171'
p2046
sg26
Nsg27
I171
sg28
Nsg29
Nsg30
Nsg31
(dp2047
I0
g2027
sI1
g0
(g33
g2
Ntp2048
Rp2049
(dp2050
g37
I10
sg38
I1
sg39
I0
sg40
I172
sg41
I1
sg42
I171
sbsI2
g0
(g33
g2
Ntp2051
Rp2052
(dp2053
g37
I10
sg38
I2
sg39
I0
sg40
I173
sg41
I1
sg42
I171
sbssg49
(dp2054
sbssI167
(dp2055
g15
g0
(g18
g2
Ntp2056
Rp2057
(dp2058
g22
(lp2059
sg24
S'ovs-sw172'
p2060
sg26
Nsg27
I172
sg28
Nsg29
Nsg30
Nsg31
(dp2061
I0
g2049
ssg49
(dp2062
sbssI168
(dp2063
g15
g0
(g18
g2
Ntp2064
Rp2065
(dp2066
g22
(lp2067
sg24
S'ovs-sw173'
p2068
sg26
Nsg27
I173
sg28
Nsg29
Nsg30
Nsg31
(dp2069
I0
g2052
ssg49
(dp2070
sbssI169
(dp2071
g15
g0
(g18
g2
Ntp2072
Rp2073
(dp2074
g22
(lp2075
sg24
S'ovs-sw174'
p2076
sg26
Nsg27
I174
sg28
Nsg29
Nsg30
Nsg31
(dp2077
I0
g2038
sI1
g0
(g33
g2
Ntp2078
Rp2079
(dp2080
g37
I10
sg38
I1
sg39
I0
sg40
I176
sg41
I1
sg42
I174
sbsI2
g0
(g33
g2
Ntp2081
Rp2082
(dp2083
g37
I10
sg38
I2
sg39
I0
sg40
I175
sg41
I1
sg42
I174
sbssg49
(dp2084
sbssI170
(dp2085
g15
g0
(g18
g2
Ntp2086
Rp2087
(dp2088
g22
(lp2089
sg24
S'ovs-sw175'
p2090
sg26
Nsg27
I175
sg28
Nsg29
Nsg30
Nsg31
(dp2091
I0
g2082
sI1
g0
(g33
g2
Ntp2092
Rp2093
(dp2094
g37
I10
sg38
I1
sg39
I1
sg40
I176
sg41
I1
sg42
I175
sbssg49
(dp2095
sbssI171
(dp2096
g15
g0
(g18
g2
Ntp2097
Rp2098
(dp2099
g22
(lp2100
sg24
S'ovs-sw176'
p2101
sg26
Nsg27
I176
sg28
Nsg29
Nsg30
Nsg31
(dp2102
I0
g2079
sI1
g2093
ssg49
(dp2103
sbssI172
(dp2104
g15
g0
(g18
g2
Ntp2105
Rp2106
(dp2107
g22
(lp2108
sg24
S'ovs-sw177'
p2109
sg26
Nsg27
I177
sg28
Nsg29
Nsg30
Nsg31
(dp2110
I0
g184
sI1
g0
(g33
g2
Ntp2111
Rp2112
(dp2113
g37
I10
sg38
I1
sg39
I1
sg40
I178
sg41
I10
sg42
I177
sbsI2
g0
(g33
g2
Ntp2114
Rp2115
(dp2116
g37
I10
sg38
I2
sg39
I0
sg40
I179
sg41
I10
sg42
I177
sbssg49
(dp2117
sbssI173
(dp2118
g15
g0
(g18
g2
Ntp2119
Rp2120
(dp2121
g22
(lp2122
sg24
S'ovs-sw178'
p2123
sg26
Nsg27
I178
sg28
Nsg29
Nsg30
Nsg31
(dp2124
I0
g187
sI1
g2112
sI2
g0
(g33
g2
Ntp2125
Rp2126
(dp2127
g37
I10
sg38
I2
sg39
I0
sg40
I186
sg41
I10
sg42
I178
sbssg49
(dp2128
sbssI174
(dp2129
g15
g0
(g18
g2
Ntp2130
Rp2131
(dp2132
g22
(lp2133
sg24
S'ovs-sw179'
p2134
sg26
Nsg27
I179
sg28
Nsg29
Nsg30
Nsg31
(dp2135
I0
g2115
sI1
g0
(g33
g2
Ntp2136
Rp2137
(dp2138
g37
I10
sg38
I1
sg39
I0
sg40
I180
sg41
I10
sg42
I179
sbsI2
g0
(g33
g2
Ntp2139
Rp2140
(dp2141
g37
I10
sg38
I2
sg39
I0
sg40
I181
sg41
I10
sg42
I179
sbssg49
(dp2142
sbssI175
(dp2143
g15
g0
(g18
g2
Ntp2144
Rp2145
(dp2146
g22
(lp2147
sg24
S'ovs-sw180'
p2148
sg26
Nsg27
I180
sg28
Nsg29
Nsg30
Nsg31
(dp2149
I0
g2137
sI1
g0
(g33
g2
Ntp2150
Rp2151
(dp2152
g37
I10
sg38
I1
sg39
I0
sg40
I182
sg41
I10
sg42
I180
sbssg49
(dp2153
sbssI176
(dp2154
g15
g0
(g18
g2
Ntp2155
Rp2156
(dp2157
g22
(lp2158
sg24
S'ovs-sw181'
p2159
sg26
Nsg27
I181
sg28
Nsg29
Nsg30
Nsg31
(dp2160
I0
g2140
sI1
g0
(g33
g2
Ntp2161
Rp2162
(dp2163
g37
I10
sg38
I1
sg39
I0
sg40
I183
sg41
I10
sg42
I181
sbssg49
(dp2164
sbssI177
(dp2165
g15
g0
(g18
g2
Ntp2166
Rp2167
(dp2168
g22
(lp2169
sg24
S'ovs-sw182'
p2170
sg26
Nsg27
I182
sg28
Nsg29
Nsg30
Nsg31
(dp2171
I0
g2151
sI1
g0
(g33
g2
Ntp2172
Rp2173
(dp2174
g37
I10
sg38
I1
sg39
I0
sg40
I184
sg41
I10
sg42
I182
sbssg49
(dp2175
sbssI178
(dp2176
g15
g0
(g18
g2
Ntp2177
Rp2178
(dp2179
g22
(lp2180
sg24
S'ovs-sw183'
p2181
sg26
Nsg27
I183
sg28
Nsg29
Nsg30
Nsg31
(dp2182
I0
g2162
sI1
g0
(g33
g2
Ntp2183
Rp2184
(dp2185
g37
I10
sg38
I1
sg39
I0
sg40
I185
sg41
I10
sg42
I183
sbssg49
(dp2186
sbssI179
(dp2187
g15
g0
(g18
g2
Ntp2188
Rp2189
(dp2190
g22
(lp2191
sg24
S'ovs-sw184'
p2192
sg26
Nsg27
I184
sg28
Nsg29
Nsg30
Nsg31
(dp2193
I0
g2173
ssg49
(dp2194
sbssI180
(dp2195
g15
g0
(g18
g2
Ntp2196
Rp2197
(dp2198
g22
(lp2199
sg24
S'ovs-sw185'
p2200
sg26
Nsg27
I185
sg28
Nsg29
Nsg30
Nsg31
(dp2201
I0
g2184
ssg49
(dp2202
sbssI181
(dp2203
g15
g0
(g18
g2
Ntp2204
Rp2205
(dp2206
g22
(lp2207
sg24
S'ovs-sw186'
p2208
sg26
Nsg27
I186
sg28
Nsg29
Nsg30
Nsg31
(dp2209
I0
g2126
sI1
g0
(g33
g2
Ntp2210
Rp2211
(dp2212
g37
I10
sg38
I1
sg39
I0
sg40
I187
sg41
I10
sg42
I186
sbsI2
g0
(g33
g2
Ntp2213
Rp2214
(dp2215
g37
I10
sg38
I2
sg39
I0
sg40
I188
sg41
I10
sg42
I186
sbssg49
(dp2216
sbssI182
(dp2217
g15
g0
(g18
g2
Ntp2218
Rp2219
(dp2220
g22
(lp2221
sg24
S'ovs-sw187'
p2222
sg26
Nsg27
I187
sg28
Nsg29
Nsg30
Nsg31
(dp2223
I0
g2211
sI1
g0
(g33
g2
Ntp2224
Rp2225
(dp2226
g37
I10
sg38
I1
sg39
I0
sg40
I189
sg41
I10
sg42
I187
sbssg49
(dp2227
sbssI183
(dp2228
g15
g0
(g18
g2
Ntp2229
Rp2230
(dp2231
g22
(lp2232
sg24
S'ovs-sw188'
p2233
sg26
Nsg27
I188
sg28
Nsg29
Nsg30
Nsg31
(dp2234
I0
g2214
sI1
g0
(g33
g2
Ntp2235
Rp2236
(dp2237
g37
I10
sg38
I1
sg39
I0
sg40
I190
sg41
I10
sg42
I188
sbssg49
(dp2238
sbssI184
(dp2239
g15
g0
(g18
g2
Ntp2240
Rp2241
(dp2242
g22
(lp2243
sg24
S'ovs-sw189'
p2244
sg26
Nsg27
I189
sg28
Nsg29
Nsg30
Nsg31
(dp2245
I0
g2225
sI1
g0
(g33
g2
Ntp2246
Rp2247
(dp2248
g37
I10
sg38
I1
sg39
I0
sg40
I191
sg41
I10
sg42
I189
sbssg49
(dp2249
sbssI185
(dp2250
g15
g0
(g18
g2
Ntp2251
Rp2252
(dp2253
g22
(lp2254
sg24
S'ovs-sw190'
p2255
sg26
Nsg27
I190
sg28
Nsg29
Nsg30
Nsg31
(dp2256
I0
g2236
sI1
g0
(g33
g2
Ntp2257
Rp2258
(dp2259
g37
I10
sg38
I1
sg39
I0
sg40
I192
sg41
I10
sg42
I190
sbssg49
(dp2260
sbssI186
(dp2261
g15
g0
(g18
g2
Ntp2262
Rp2263
(dp2264
g22
(lp2265
sg24
S'ovs-sw191'
p2266
sg26
Nsg27
I191
sg28
Nsg29
Nsg30
Nsg31
(dp2267
I0
g2247
ssg49
(dp2268
sbssI187
(dp2269
g15
g0
(g18
g2
Ntp2270
Rp2271
(dp2272
g22
(lp2273
sg24
S'ovs-sw192'
p2274
sg26
Nsg27
I192
sg28
Nsg29
Nsg30
Nsg31
(dp2275
I0
g2258
ssg49
(dp2276
sbssI188
(dp2277
g15
g0
(g18
g2
Ntp2278
Rp2279
(dp2280
g22
(lp2281
sg24
S'ovs-sw193'
p2282
sg26
Nsg27
I193
sg28
Nsg29
Nsg30
Nsg31
(dp2283
I0
g201
sI1
g0
(g33
g2
Ntp2284
Rp2285
(dp2286
g37
I10
sg38
I1
sg39
I1
sg40
I194
sg41
I10
sg42
I193
sbsI2
g0
(g33
g2
Ntp2287
Rp2288
(dp2289
g37
I10
sg38
I2
sg39
I0
sg40
I199
sg41
I10
sg42
I193
sbssg49
(dp2290
sbssI189
(dp2291
g15
g0
(g18
g2
Ntp2292
Rp2293
(dp2294
g22
(lp2295
sg24
S'ovs-sw194'
p2296
sg26
Nsg27
I194
sg28
Nsg29
Nsg30
Nsg31
(dp2297
I0
g207
sI1
g2285
sI2
g0
(g33
g2
Ntp2298
Rp2299
(dp2300
g37
I10
sg38
I2
sg39
I0
sg40
I204
sg41
I10
sg42
I194
sbssg49
(dp2301
sbssI190
(dp2302
g15
g0
(g18
g2
Ntp2303
Rp2304
(dp2305
g22
(lp2306
sg24
S'ovs-sw195'
p2307
sg26
Nsg27
I195
sg28
Nsg29
Nsg30
Nsg31
(dp2308
I0
g0
(g33
g2
Ntp2309
Rp2310
(dp2311
g37
I10
sg38
I0
sg39
I1
sg40
I199
sg41
I10
sg42
I195
sbssg49
(dp2312
sbssI191
(dp2313
g15
g0
(g18
g2
Ntp2314
Rp2315
(dp2316
g22
(lp2317
sg24
S'ovs-sw196'
p2318
sg26
Nsg27
I196
sg28
Nsg29
Nsg30
Nsg31
(dp2319
I0
g0
(g33
g2
Ntp2320
Rp2321
(dp2322
g37
I10
sg38
I0
sg39
I2
sg40
I199
sg41
I10
sg42
I196
sbssg49
(dp2323
sbssI192
(dp2324
g15
g0
(g18
g2
Ntp2325
Rp2326
(dp2327
g22
(lp2328
sg24
S'ovs-sw197'
p2329
sg26
Nsg27
I197
sg28
Nsg29
Nsg30
Nsg31
(dp2330
I0
g0
(g33
g2
Ntp2331
Rp2332
(dp2333
g37
I10
sg38
I0
sg39
I3
sg40
I199
sg41
I10
sg42
I197
sbssg49
(dp2334
sbssI193
(dp2335
g15
g0
(g18
g2
Ntp2336
Rp2337
(dp2338
g22
(lp2339
sg24
S'ovs-sw198'
p2340
sg26
Nsg27
I198
sg28
Nsg29
Nsg30
Nsg31
(dp2341
I0
g0
(g33
g2
Ntp2342
Rp2343
(dp2344
g37
I10
sg38
I0
sg39
I4
sg40
I199
sg41
I10
sg42
I198
sbssg49
(dp2345
sbssI194
(dp2346
g15
g0
(g18
g2
Ntp2347
Rp2348
(dp2349
g22
(lp2350
sg24
S'ovs-sw199'
p2351
sg26
Nsg27
I199
sg28
Nsg29
Nsg30
Nsg31
(dp2352
I0
g2288
sI1
g2310
sI2
g2321
sI3
g2332
sI4
g2343
ssg49
(dp2353
sbssI195
(dp2354
g15
g0
(g18
g2
Ntp2355
Rp2356
(dp2357
g22
(lp2358
sg24
S'ovs-sw200'
p2359
sg26
Nsg27
I200
sg28
Nsg29
Nsg30
Nsg31
(dp2360
I0
g0
(g33
g2
Ntp2361
Rp2362
(dp2363
g37
I10
sg38
I0
sg39
I1
sg40
I204
sg41
I10
sg42
I200
sbssg49
(dp2364
sbssI196
(dp2365
g15
g0
(g18
g2
Ntp2366
Rp2367
(dp2368
g22
(lp2369
sg24
S'ovs-sw201'
p2370
sg26
Nsg27
I201
sg28
Nsg29
Nsg30
Nsg31
(dp2371
I0
g0
(g33
g2
Ntp2372
Rp2373
(dp2374
g37
I10
sg38
I0
sg39
I2
sg40
I204
sg41
I10
sg42
I201
sbssg49
(dp2375
sbssI197
(dp2376
g15
g0
(g18
g2
Ntp2377
Rp2378
(dp2379
g22
(lp2380
sg24
S'ovs-sw202'
p2381
sg26
Nsg27
I202
sg28
Nsg29
Nsg30
Nsg31
(dp2382
I0
g0
(g33
g2
Ntp2383
Rp2384
(dp2385
g37
I10
sg38
I0
sg39
I3
sg40
I204
sg41
I10
sg42
I202
sbssg49
(dp2386
sbssI198
(dp2387
g15
g0
(g18
g2
Ntp2388
Rp2389
(dp2390
g22
(lp2391
sg24
S'ovs-sw203'
p2392
sg26
Nsg27
I203
sg28
Nsg29
Nsg30
Nsg31
(dp2393
I0
g0
(g33
g2
Ntp2394
Rp2395
(dp2396
g37
I10
sg38
I0
sg39
I4
sg40
I204
sg41
I10
sg42
I203
sbssg49
(dp2397
sbssI199
(dp2398
g15
g0
(g18
g2
Ntp2399
Rp2400
(dp2401
g22
(lp2402
sg24
S'ovs-sw204'
p2403
sg26
Nsg27
I204
sg28
Nsg29
Nsg30
Nsg31
(dp2404
I0
g2299
sI1
g2362
sI2
g2373
sI3
g2384
sI4
g2395
ssg49
(dp2405
sbssI200
(dp2406
g15
g0
(g18
g2
Ntp2407
Rp2408
(dp2409
g22
(lp2410
sg24
S'ovs-sw205'
p2411
sg26
Nsg27
I205
sg28
Nsg29
Nsg30
Nsg31
(dp2412
I0
g221
sI1
g0
(g33
g2
Ntp2413
Rp2414
(dp2415
g37
I10
sg38
I1
sg39
I1
sg40
I206
sg41
I10
sg42
I205
sbsI2
g0
(g33
g2
Ntp2416
Rp2417
(dp2418
g37
I10
sg38
I2
sg39
I0
sg40
I207
sg41
I10
sg42
I205
sbssg49
(dp2419
sbssI201
(dp2420
g15
g0
(g18
g2
Ntp2421
Rp2422
(dp2423
g22
(lp2424
sg24
S'ovs-sw206'
p2425
sg26
Nsg27
I206
sg28
Nsg29
Nsg30
Nsg31
(dp2426
I0
g224
sI1
g2414
sI2
g0
(g33
g2
Ntp2427
Rp2428
(dp2429
g37
I10
sg38
I2
sg39
I0
sg40
I214
sg41
I10
sg42
I206
sbssg49
(dp2430
sbssI202
(dp2431
g15
g0
(g18
g2
Ntp2432
Rp2433
(dp2434
g22
(lp2435
sg24
S'ovs-sw207'
p2436
sg26
Nsg27
I207
sg28
Nsg29
Nsg30
Nsg31
(dp2437
I0
g2417
sI1
g0
(g33
g2
Ntp2438
Rp2439
(dp2440
g37
I10
sg38
I1
sg39
I0
sg40
I208
sg41
I10
sg42
I207
sbsI2
g0
(g33
g2
Ntp2441
Rp2442
(dp2443
g37
I10
sg38
I2
sg39
I0
sg40
I209
sg41
I10
sg42
I207
sbssg49
(dp2444
sbssI203
(dp2445
g15
g0
(g18
g2
Ntp2446
Rp2447
(dp2448
g22
(lp2449
sg24
S'ovs-sw208'
p2450
sg26
Nsg27
I208
sg28
Nsg29
Nsg30
Nsg31
(dp2451
I0
g2439
sI1
g0
(g33
g2
Ntp2452
Rp2453
(dp2454
g37
I10
sg38
I1
sg39
I0
sg40
I210
sg41
I10
sg42
I208
sbssg49
(dp2455
sbssI204
(dp2456
g15
g0
(g18
g2
Ntp2457
Rp2458
(dp2459
g22
(lp2460
sg24
S'ovs-sw209'
p2461
sg26
Nsg27
I209
sg28
Nsg29
Nsg30
Nsg31
(dp2462
I0
g2442
sI1
g0
(g33
g2
Ntp2463
Rp2464
(dp2465
g37
I10
sg38
I1
sg39
I0
sg40
I211
sg41
I10
sg42
I209
sbssg49
(dp2466
sbssI205
(dp2467
g15
g0
(g18
g2
Ntp2468
Rp2469
(dp2470
g22
(lp2471
sg24
S'ovs-sw210'
p2472
sg26
Nsg27
I210
sg28
Nsg29
Nsg30
Nsg31
(dp2473
I0
g2453
sI1
g0
(g33
g2
Ntp2474
Rp2475
(dp2476
g37
I10
sg38
I1
sg39
I0
sg40
I212
sg41
I10
sg42
I210
sbssg49
(dp2477
sbssI206
(dp2478
g15
g0
(g18
g2
Ntp2479
Rp2480
(dp2481
g22
(lp2482
sg24
S'ovs-sw211'
p2483
sg26
Nsg27
I211
sg28
Nsg29
Nsg30
Nsg31
(dp2484
I0
g2464
sI1
g0
(g33
g2
Ntp2485
Rp2486
(dp2487
g37
I10
sg38
I1
sg39
I0
sg40
I213
sg41
I10
sg42
I211
sbssg49
(dp2488
sbssI207
(dp2489
g15
g0
(g18
g2
Ntp2490
Rp2491
(dp2492
g22
(lp2493
sg24
S'ovs-sw212'
p2494
sg26
Nsg27
I212
sg28
Nsg29
Nsg30
Nsg31
(dp2495
I0
g2475
ssg49
(dp2496
sbssI208
(dp2497
g15
g0
(g18
g2
Ntp2498
Rp2499
(dp2500
g22
(lp2501
sg24
S'ovs-sw213'
p2502
sg26
Nsg27
I213
sg28
Nsg29
Nsg30
Nsg31
(dp2503
I0
g2486
ssg49
(dp2504
sbssI209
(dp2505
g15
g0
(g18
g2
Ntp2506
Rp2507
(dp2508
g22
(lp2509
sg24
S'ovs-sw214'
p2510
sg26
Nsg27
I214
sg28
Nsg29
Nsg30
Nsg31
(dp2511
I0
g2428
sI1
g0
(g33
g2
Ntp2512
Rp2513
(dp2514
g37
I10
sg38
I1
sg39
I0
sg40
I216
sg41
I10
sg42
I214
sbsI2
g0
(g33
g2
Ntp2515
Rp2516
(dp2517
g37
I10
sg38
I2
sg39
I0
sg40
I215
sg41
I10
sg42
I214
sbssg49
(dp2518
sbssI210
(dp2519
g15
g0
(g18
g2
Ntp2520
Rp2521
(dp2522
g22
(lp2523
sg24
S'ovs-sw215'
p2524
sg26
Nsg27
I215
sg28
Nsg29
Nsg30
Nsg31
(dp2525
I0
g2516
sI1
g0
(g33
g2
Ntp2526
Rp2527
(dp2528
g37
I10
sg38
I1
sg39
I0
sg40
I217
sg41
I10
sg42
I215
sbssg49
(dp2529
sbssI211
(dp2530
g15
g0
(g18
g2
Ntp2531
Rp2532
(dp2533
g22
(lp2534
sg24
S'ovs-sw216'
p2535
sg26
Nsg27
I216
sg28
Nsg29
Nsg30
Nsg31
(dp2536
I0
g2513
sI1
g0
(g33
g2
Ntp2537
Rp2538
(dp2539
g37
I10
sg38
I1
sg39
I0
sg40
I218
sg41
I10
sg42
I216
sbssg49
(dp2540
sbssI212
(dp2541
g15
g0
(g18
g2
Ntp2542
Rp2543
(dp2544
g22
(lp2545
sg24
S'ovs-sw217'
p2546
sg26
Nsg27
I217
sg28
Nsg29
Nsg30
Nsg31
(dp2547
I0
g2527
sI1
g0
(g33
g2
Ntp2548
Rp2549
(dp2550
g37
I10
sg38
I1
sg39
I0
sg40
I219
sg41
I10
sg42
I217
sbssg49
(dp2551
sbssI213
(dp2552
g15
g0
(g18
g2
Ntp2553
Rp2554
(dp2555
g22
(lp2556
sg24
S'ovs-sw218'
p2557
sg26
Nsg27
I218
sg28
Nsg29
Nsg30
Nsg31
(dp2558
I0
g2538
sI1
g0
(g33
g2
Ntp2559
Rp2560
(dp2561
g37
I10
sg38
I1
sg39
I0
sg40
I220
sg41
I10
sg42
I218
sbssg49
(dp2562
sbssI214
(dp2563
g15
g0
(g18
g2
Ntp2564
Rp2565
(dp2566
g22
(lp2567
sg24
S'ovs-sw219'
p2568
sg26
Nsg27
I219
sg28
Nsg29
Nsg30
Nsg31
(dp2569
I0
g2549
ssg49
(dp2570
sbssI215
(dp2571
g15
g0
(g18
g2
Ntp2572
Rp2573
(dp2574
g22
(lp2575
sg24
S'ovs-sw220'
p2576
sg26
Nsg27
I220
sg28
Nsg29
Nsg30
Nsg31
(dp2577
I0
g2560
ssg49
(dp2578
sbssI216
(dp2579
g15
g0
(g18
g2
Ntp2580
Rp2581
(dp2582
g22
(lp2583
sg24
S'ovs-sw221'
p2584
sg26
Nsg27
I221
sg28
Nsg29
Nsg30
Nsg31
(dp2585
I0
g235
sI1
g0
(g33
g2
Ntp2586
Rp2587
(dp2588
g37
I10
sg38
I1
sg39
I0
sg40
I224
sg41
I10
sg42
I221
sbsI2
g0
(g33
g2
Ntp2589
Rp2590
(dp2591
g37
I10
sg38
I2
sg39
I0
sg40
I225
sg41
I10
sg42
I221
sbsI3
g0
(g33
g2
Ntp2592
Rp2593
(dp2594
g37
I10
sg38
I3
sg39
I0
sg40
I226
sg41
I10
sg42
I221
sbsI4
g0
(g33
g2
Ntp2595
Rp2596
(dp2597
g37
I10
sg38
I4
sg39
I1
sg40
I222
sg41
I10
sg42
I221
sbsI5
g0
(g33
g2
Ntp2598
Rp2599
(dp2600
g37
I10
sg38
I5
sg39
I0
sg40
I223
sg41
I10
sg42
I221
sbssg49
(dp2601
sbssI217
(dp2602
g15
g0
(g18
g2
Ntp2603
Rp2604
(dp2605
g22
(lp2606
sg24
S'ovs-sw222'
p2607
sg26
Nsg27
I222
sg28
Nsg29
Nsg30
Nsg31
(dp2608
I0
g238
sI1
g2596
sI2
g0
(g33
g2
Ntp2609
Rp2610
(dp2611
g37
I10
sg38
I2
sg39
I0
sg40
I259
sg41
I10
sg42
I222
sbsI3
g0
(g33
g2
Ntp2612
Rp2613
(dp2614
g37
I10
sg38
I3
sg39
I0
sg40
I260
sg41
I10
sg42
I222
sbsI4
g0
(g33
g2
Ntp2615
Rp2616
(dp2617
g37
I10
sg38
I4
sg39
I0
sg40
I261
sg41
I10
sg42
I222
sbsI5
g0
(g33
g2
Ntp2618
Rp2619
(dp2620
g37
I10
sg38
I5
sg39
I0
sg40
I262
sg41
I10
sg42
I222
sbssg49
(dp2621
sbssI218
(dp2622
g15
g0
(g18
g2
Ntp2623
Rp2624
(dp2625
g22
(lp2626
sg24
S'ovs-sw223'
p2627
sg26
Nsg27
I223
sg28
Nsg29
Nsg30
Nsg31
(dp2628
I0
g2599
sI1
g0
(g33
g2
Ntp2629
Rp2630
(dp2631
g37
I10
sg38
I1
sg39
I0
sg40
I233
sg41
I10
sg42
I223
sbsI2
g0
(g33
g2
Ntp2632
Rp2633
(dp2634
g37
I10
sg38
I2
sg39
I0
sg40
I227
sg41
I10
sg42
I223
sbsI3
g0
(g33
g2
Ntp2635
Rp2636
(dp2637
g37
I10
sg38
I3
sg39
I0
sg40
I229
sg41
I10
sg42
I223
sbsI4
g0
(g33
g2
Ntp2638
Rp2639
(dp2640
g37
I10
sg38
I4
sg39
I0
sg40
I231
sg41
I10
sg42
I223
sbssg49
(dp2641
sbssI219
(dp2642
g15
g0
(g18
g2
Ntp2643
Rp2644
(dp2645
g22
(lp2646
sg24
S'ovs-sw224'
p2647
sg26
Nsg27
I224
sg28
Nsg29
Nsg30
Nsg31
(dp2648
I0
g2587
sI1
g0
(g33
g2
Ntp2649
Rp2650
(dp2651
g37
I10
sg38
I1
sg39
I1
sg40
I233
sg41
I10
sg42
I224
sbsI2
g0
(g33
g2
Ntp2652
Rp2653
(dp2654
g37
I10
sg38
I2
sg39
I1
sg40
I227
sg41
I10
sg42
I224
sbsI3
g0
(g33
g2
Ntp2655
Rp2656
(dp2657
g37
I10
sg38
I3
sg39
I1
sg40
I229
sg41
I10
sg42
I224
sbsI4
g0
(g33
g2
Ntp2658
Rp2659
(dp2660
g37
I10
sg38
I4
sg39
I1
sg40
I231
sg41
I10
sg42
I224
sbssg49
(dp2661
sbssI220
(dp2662
g15
g0
(g18
g2
Ntp2663
Rp2664
(dp2665
g22
(lp2666
sg24
S'ovs-sw225'
p2667
sg26
Nsg27
I225
sg28
Nsg29
Nsg30
Nsg31
(dp2668
I0
g2590
sI1
g0
(g33
g2
Ntp2669
Rp2670
(dp2671
g37
I10
sg38
I1
sg39
I0
sg40
I232
sg41
I10
sg42
I225
sbsI2
g0
(g33
g2
Ntp2672
Rp2673
(dp2674
g37
I10
sg38
I2
sg39
I0
sg40
I234
sg41
I10
sg42
I225
sbsI3
g0
(g33
g2
Ntp2675
Rp2676
(dp2677
g37
I10
sg38
I3
sg39
I0
sg40
I228
sg41
I10
sg42
I225
sbsI4
g0
(g33
g2
Ntp2678
Rp2679
(dp2680
g37
I10
sg38
I4
sg39
I0
sg40
I230
sg41
I10
sg42
I225
sbssg49
(dp2681
sbssI221
(dp2682
g15
g0
(g18
g2
Ntp2683
Rp2684
(dp2685
g22
(lp2686
sg24
S'ovs-sw226'
p2687
sg26
Nsg27
I226
sg28
Nsg29
Nsg30
Nsg31
(dp2688
I0
g2593
sI1
g0
(g33
g2
Ntp2689
Rp2690
(dp2691
g37
I10
sg38
I1
sg39
I1
sg40
I232
sg41
I10
sg42
I226
sbsI2
g0
(g33
g2
Ntp2692
Rp2693
(dp2694
g37
I10
sg38
I2
sg39
I1
sg40
I234
sg41
I10
sg42
I226
sbsI3
g0
(g33
g2
Ntp2695
Rp2696
(dp2697
g37
I10
sg38
I3
sg39
I1
sg40
I228
sg41
I10
sg42
I226
sbsI4
g0
(g33
g2
Ntp2698
Rp2699
(dp2700
g37
I10
sg38
I4
sg39
I1
sg40
I230
sg41
I10
sg42
I226
sbssg49
(dp2701
sbssI222
(dp2702
g15
g0
(g18
g2
Ntp2703
Rp2704
(dp2705
g22
(lp2706
sg24
S'ovs-sw227'
p2707
sg26
Nsg27
I227
sg28
Nsg29
Nsg30
Nsg31
(dp2708
I0
g2633
sI1
g2653
sI2
g0
(g33
g2
Ntp2709
Rp2710
(dp2711
g37
I10
sg38
I2
sg39
I0
sg40
I235
sg41
I10
sg42
I227
sbsI3
g0
(g33
g2
Ntp2712
Rp2713
(dp2714
g37
I10
sg38
I3
sg39
I0
sg40
I236
sg41
I10
sg42
I227
sbssg49
(dp2715
sbssI223
(dp2716
g15
g0
(g18
g2
Ntp2717
Rp2718
(dp2719
g22
(lp2720
sg24
S'ovs-sw228'
p2721
sg26
Nsg27
I228
sg28
Nsg29
Nsg30
Nsg31
(dp2722
I0
g2676
sI1
g2696
sI2
g0
(g33
g2
Ntp2723
Rp2724
(dp2725
g37
I10
sg38
I2
sg39
I1
sg40
I235
sg41
I10
sg42
I228
sbsI3
g0
(g33
g2
Ntp2726
Rp2727
(dp2728
g37
I10
sg38
I3
sg39
I1
sg40
I236
sg41
I10
sg42
I228
sbssg49
(dp2729
sbssI224
(dp2730
g15
g0
(g18
g2
Ntp2731
Rp2732
(dp2733
g22
(lp2734
sg24
S'ovs-sw229'
p2735
sg26
Nsg27
I229
sg28
Nsg29
Nsg30
Nsg31
(dp2736
I0
g2636
sI1
g2656
sI2
g0
(g33
g2
Ntp2737
Rp2738
(dp2739
g37
I10
sg38
I2
sg39
I0
sg40
I237
sg41
I10
sg42
I229
sbsI3
g0
(g33
g2
Ntp2740
Rp2741
(dp2742
g37
I10
sg38
I3
sg39
I0
sg40
I238
sg41
I10
sg42
I229
sbssg49
(dp2743
sbssI225
(dp2744
g15
g0
(g18
g2
Ntp2745
Rp2746
(dp2747
g22
(lp2748
sg24
S'ovs-sw230'
p2749
sg26
Nsg27
I230
sg28
Nsg29
Nsg30
Nsg31
(dp2750
I0
g2679
sI1
g2699
sI2
g0
(g33
g2
Ntp2751
Rp2752
(dp2753
g37
I10
sg38
I2
sg39
I1
sg40
I237
sg41
I10
sg42
I230
sbsI3
g0
(g33
g2
Ntp2754
Rp2755
(dp2756
g37
I10
sg38
I3
sg39
I1
sg40
I238
sg41
I10
sg42
I230
sbssg49
(dp2757
sbssI226
(dp2758
g15
g0
(g18
g2
Ntp2759
Rp2760
(dp2761
g22
(lp2762
sg24
S'ovs-sw231'
p2763
sg26
Nsg27
I231
sg28
Nsg29
Nsg30
Nsg31
(dp2764
I0
g2639
sI1
g2659
sI2
g0
(g33
g2
Ntp2765
Rp2766
(dp2767
g37
I10
sg38
I2
sg39
I0
sg40
I240
sg41
I10
sg42
I231
sbsI3
g0
(g33
g2
Ntp2768
Rp2769
(dp2770
g37
I10
sg38
I3
sg39
I0
sg40
I239
sg41
I10
sg42
I231
sbssg49
(dp2771
sbssI227
(dp2772
g15
g0
(g18
g2
Ntp2773
Rp2774
(dp2775
g22
(lp2776
sg24
S'ovs-sw232'
p2777
sg26
Nsg27
I232
sg28
Nsg29
Nsg30
Nsg31
(dp2778
I0
g2670
sI1
g2690
sI2
g0
(g33
g2
Ntp2779
Rp2780
(dp2781
g37
I10
sg38
I2
sg39
I1
sg40
I240
sg41
I10
sg42
I232
sbsI3
g0
(g33
g2
Ntp2782
Rp2783
(dp2784
g37
I10
sg38
I3
sg39
I1
sg40
I239
sg41
I10
sg42
I232
sbssg49
(dp2785
sbssI228
(dp2786
g15
g0
(g18
g2
Ntp2787
Rp2788
(dp2789
g22
(lp2790
sg24
S'ovs-sw233'
p2791
sg26
Nsg27
I233
sg28
Nsg29
Nsg30
Nsg31
(dp2792
I0
g2630
sI1
g2650
sI2
g0
(g33
g2
Ntp2793
Rp2794
(dp2795
g37
I10
sg38
I2
sg39
I0
sg40
I241
sg41
I10
sg42
I233
sbsI3
g0
(g33
g2
Ntp2796
Rp2797
(dp2798
g37
I10
sg38
I3
sg39
I0
sg40
I242
sg41
I10
sg42
I233
sbssg49
(dp2799
sbssI229
(dp2800
g15
g0
(g18
g2
Ntp2801
Rp2802
(dp2803
g22
(lp2804
sg24
S'ovs-sw234'
p2805
sg26
Nsg27
I234
sg28
Nsg29
Nsg30
Nsg31
(dp2806
I0
g2673
sI1
g2693
sI2
g0
(g33
g2
Ntp2807
Rp2808
(dp2809
g37
I10
sg38
I2
sg39
I1
sg40
I242
sg41
I10
sg42
I234
sbsI3
g0
(g33
g2
Ntp2810
Rp2811
(dp2812
g37
I10
sg38
I3
sg39
I1
sg40
I241
sg41
I10
sg42
I234
sbssg49
(dp2813
sbssI230
(dp2814
g15
g0
(g18
g2
Ntp2815
Rp2816
(dp2817
g22
(lp2818
sg24
S'ovs-sw235'
p2819
sg26
Nsg27
I235
sg28
Nsg29
Nsg30
Nsg31
(dp2820
I0
g2710
sI1
g2724
sI2
g0
(g33
g2
Ntp2821
Rp2822
(dp2823
g37
I10
sg38
I2
sg39
I0
sg40
I244
sg41
I10
sg42
I235
sbsI3
g0
(g33
g2
Ntp2824
Rp2825
(dp2826
g37
I10
sg38
I3
sg39
I0
sg40
I243
sg41
I10
sg42
I235
sbssg49
(dp2827
sbssI231
(dp2828
g15
g0
(g18
g2
Ntp2829
Rp2830
(dp2831
g22
(lp2832
sg24
S'ovs-sw236'
p2833
sg26
Nsg27
I236
sg28
Nsg29
Nsg30
Nsg31
(dp2834
I0
g2713
sI1
g2727
sI2
g0
(g33
g2
Ntp2835
Rp2836
(dp2837
g37
I10
sg38
I2
sg39
I0
sg40
I245
sg41
I10
sg42
I236
sbsI3
g0
(g33
g2
Ntp2838
Rp2839
(dp2840
g37
I10
sg38
I3
sg39
I0
sg40
I246
sg41
I10
sg42
I236
sbssg49
(dp2841
sbssI232
(dp2842
g15
g0
(g18
g2
Ntp2843
Rp2844
(dp2845
g22
(lp2846
sg24
S'ovs-sw237'
p2847
sg26
Nsg27
I237
sg28
Nsg29
Nsg30
Nsg31
(dp2848
I0
g2738
sI1
g2752
sI2
g0
(g33
g2
Ntp2849
Rp2850
(dp2851
g37
I10
sg38
I2
sg39
I0
sg40
I248
sg41
I10
sg42
I237
sbsI3
g0
(g33
g2
Ntp2852
Rp2853
(dp2854
g37
I10
sg38
I3
sg39
I0
sg40
I247
sg41
I10
sg42
I237
sbssg49
(dp2855
sbssI233
(dp2856
g15
g0
(g18
g2
Ntp2857
Rp2858
(dp2859
g22
(lp2860
sg24
S'ovs-sw238'
p2861
sg26
Nsg27
I238
sg28
Nsg29
Nsg30
Nsg31
(dp2862
I0
g2741
sI1
g2755
sI2
g0
(g33
g2
Ntp2863
Rp2864
(dp2865
g37
I10
sg38
I2
sg39
I0
sg40
I249
sg41
I10
sg42
I238
sbsI3
g0
(g33
g2
Ntp2866
Rp2867
(dp2868
g37
I10
sg38
I3
sg39
I0
sg40
I250
sg41
I10
sg42
I238
sbssg49
(dp2869
sbssI234
(dp2870
g15
g0
(g18
g2
Ntp2871
Rp2872
(dp2873
g22
(lp2874
sg24
S'ovs-sw239'
p2875
sg26
Nsg27
I239
sg28
Nsg29
Nsg30
Nsg31
(dp2876
I0
g2769
sI1
g2783
sI2
g0
(g33
g2
Ntp2877
Rp2878
(dp2879
g37
I10
sg38
I2
sg39
I0
sg40
I251
sg41
I10
sg42
I239
sbsI3
g0
(g33
g2
Ntp2880
Rp2881
(dp2882
g37
I10
sg38
I3
sg39
I0
sg40
I252
sg41
I10
sg42
I239
sbssg49
(dp2883
sbssI235
(dp2884
g15
g0
(g18
g2
Ntp2885
Rp2886
(dp2887
g22
(lp2888
sg24
S'ovs-sw240'
p2889
sg26
Nsg27
I240
sg28
Nsg29
Nsg30
Nsg31
(dp2890
I0
g2766
sI1
g2780
sI2
g0
(g33
g2
Ntp2891
Rp2892
(dp2893
g37
I10
sg38
I2
sg39
I0
sg40
I253
sg41
I10
sg42
I240
sbsI3
g0
(g33
g2
Ntp2894
Rp2895
(dp2896
g37
I10
sg38
I3
sg39
I0
sg40
I254
sg41
I10
sg42
I240
sbssg49
(dp2897
sbssI236
(dp2898
g15
g0
(g18
g2
Ntp2899
Rp2900
(dp2901
g22
(lp2902
sg24
S'ovs-sw241'
p2903
sg26
Nsg27
I241
sg28
Nsg29
Nsg30
Nsg31
(dp2904
I0
g2794
sI1
g2811
sI2
g0
(g33
g2
Ntp2905
Rp2906
(dp2907
g37
I10
sg38
I2
sg39
I0
sg40
I256
sg41
I10
sg42
I241
sbsI3
g0
(g33
g2
Ntp2908
Rp2909
(dp2910
g37
I10
sg38
I3
sg39
I0
sg40
I255
sg41
I10
sg42
I241
sbssg49
(dp2911
sbssI237
(dp2912
g15
g0
(g18
g2
Ntp2913
Rp2914
(dp2915
g22
(lp2916
sg24
S'ovs-sw242'
p2917
sg26
Nsg27
I242
sg28
Nsg29
Nsg30
Nsg31
(dp2918
I0
g2797
sI1
g2808
sI2
g0
(g33
g2
Ntp2919
Rp2920
(dp2921
g37
I10
sg38
I2
sg39
I0
sg40
I258
sg41
I10
sg42
I242
sbsI3
g0
(g33
g2
Ntp2922
Rp2923
(dp2924
g37
I10
sg38
I3
sg39
I0
sg40
I257
sg41
I10
sg42
I242
sbssg49
(dp2925
sbssI238
(dp2926
g15
g0
(g18
g2
Ntp2927
Rp2928
(dp2929
g22
(lp2930
sg24
S'ovs-sw243'
p2931
sg26
Nsg27
I243
sg28
Nsg29
Nsg30
Nsg31
(dp2932
I0
g2825
ssg49
(dp2933
sbssI239
(dp2934
g15
g0
(g18
g2
Ntp2935
Rp2936
(dp2937
g22
(lp2938
sg24
S'ovs-sw244'
p2939
sg26
Nsg27
I244
sg28
Nsg29
Nsg30
Nsg31
(dp2940
I0
g2822
ssg49
(dp2941
sbssI240
(dp2942
g15
g0
(g18
g2
Ntp2943
Rp2944
(dp2945
g22
(lp2946
sg24
S'ovs-sw245'
p2947
sg26
Nsg27
I245
sg28
Nsg29
Nsg30
Nsg31
(dp2948
I0
g2836
ssg49
(dp2949
sbssI241
(dp2950
g15
g0
(g18
g2
Ntp2951
Rp2952
(dp2953
g22
(lp2954
sg24
S'ovs-sw246'
p2955
sg26
Nsg27
I246
sg28
Nsg29
Nsg30
Nsg31
(dp2956
I0
g2839
ssg49
(dp2957
sbssI242
(dp2958
g15
g0
(g18
g2
Ntp2959
Rp2960
(dp2961
g22
(lp2962
sg24
S'ovs-sw247'
p2963
sg26
Nsg27
I247
sg28
Nsg29
Nsg30
Nsg31
(dp2964
I0
g2853
ssg49
(dp2965
sbssI243
(dp2966
g15
g0
(g18
g2
Ntp2967
Rp2968
(dp2969
g22
(lp2970
sg24
S'ovs-sw248'
p2971
sg26
Nsg27
I248
sg28
Nsg29
Nsg30
Nsg31
(dp2972
I0
g2850
ssg49
(dp2973
sbssI244
(dp2974
g15
g0
(g18
g2
Ntp2975
Rp2976
(dp2977
g22
(lp2978
sg24
S'ovs-sw249'
p2979
sg26
Nsg27
I249
sg28
Nsg29
Nsg30
Nsg31
(dp2980
I0
g2864
ssg49
(dp2981
sbssI245
(dp2982
g15
g0
(g18
g2
Ntp2983
Rp2984
(dp2985
g22
(lp2986
sg24
S'ovs-sw250'
p2987
sg26
Nsg27
I250
sg28
Nsg29
Nsg30
Nsg31
(dp2988
I0
g2867
ssg49
(dp2989
sbssI246
(dp2990
g15
g0
(g18
g2
Ntp2991
Rp2992
(dp2993
g22
(lp2994
sg24
S'ovs-sw251'
p2995
sg26
Nsg27
I251
sg28
Nsg29
Nsg30
Nsg31
(dp2996
I0
g2878
ssg49
(dp2997
sbssI247
(dp2998
g15
g0
(g18
g2
Ntp2999
Rp3000
(dp3001
g22
(lp3002
sg24
S'ovs-sw252'
p3003
sg26
Nsg27
I252
sg28
Nsg29
Nsg30
Nsg31
(dp3004
I0
g2881
ssg49
(dp3005
sbssI248
(dp3006
g15
g0
(g18
g2
Ntp3007
Rp3008
(dp3009
g22
(lp3010
sg24
S'ovs-sw253'
p3011
sg26
Nsg27
I253
sg28
Nsg29
Nsg30
Nsg31
(dp3012
I0
g2892
ssg49
(dp3013
sbssI249
(dp3014
g15
g0
(g18
g2
Ntp3015
Rp3016
(dp3017
g22
(lp3018
sg24
S'ovs-sw254'
p3019
sg26
Nsg27
I254
sg28
Nsg29
Nsg30
Nsg31
(dp3020
I0
g2895
ssg49
(dp3021
sbssI250
(dp3022
g15
g0
(g18
g2
Ntp3023
Rp3024
(dp3025
g22
(lp3026
sg24
S'ovs-sw255'
p3027
sg26
Nsg27
I255
sg28
Nsg29
Nsg30
Nsg31
(dp3028
I0
g2909
ssg49
(dp3029
sbssI251
(dp3030
g15
g0
(g18
g2
Ntp3031
Rp3032
(dp3033
g22
(lp3034
sg24
S'ovs-sw256'
p3035
sg26
Nsg27
I256
sg28
Nsg29
Nsg30
Nsg31
(dp3036
I0
g2906
ssg49
(dp3037
sbssI252
(dp3038
g15
g0
(g18
g2
Ntp3039
Rp3040
(dp3041
g22
(lp3042
sg24
S'ovs-sw257'
p3043
sg26
Nsg27
I257
sg28
Nsg29
Nsg30
Nsg31
(dp3044
I0
g2923
ssg49
(dp3045
sbssI253
(dp3046
g15
g0
(g18
g2
Ntp3047
Rp3048
(dp3049
g22
(lp3050
sg24
S'ovs-sw258'
p3051
sg26
Nsg27
I258
sg28
Nsg29
Nsg30
Nsg31
(dp3052
I0
g2920
ssg49
(dp3053
sbssI254
(dp3054
g15
g0
(g18
g2
Ntp3055
Rp3056
(dp3057
g22
(lp3058
sg24
S'ovs-sw259'
p3059
sg26
Nsg27
I259
sg28
Nsg29
Nsg30
Nsg31
(dp3060
I0
g2610
sI1
g0
(g33
g2
Ntp3061
Rp3062
(dp3063
g37
I10
sg38
I1
sg39
I0
sg40
I265
sg41
I10
sg42
I259
sbsI2
g0
(g33
g2
Ntp3064
Rp3065
(dp3066
g37
I10
sg38
I2
sg39
I0
sg40
I267
sg41
I10
sg42
I259
sbsI3
g0
(g33
g2
Ntp3067
Rp3068
(dp3069
g37
I10
sg38
I3
sg39
I0
sg40
I269
sg41
I10
sg42
I259
sbsI4
g0
(g33
g2
Ntp3070
Rp3071
(dp3072
g37
I10
sg38
I4
sg39
I0
sg40
I263
sg41
I10
sg42
I259
sbssg49
(dp3073
sbssI255
(dp3074
g15
g0
(g18
g2
Ntp3075
Rp3076
(dp3077
g22
(lp3078
sg24
S'ovs-sw260'
p3079
sg26
Nsg27
I260
sg28
Nsg29
Nsg30
Nsg31
(dp3080
I0
g2613
sI1
g0
(g33
g2
Ntp3081
Rp3082
(dp3083
g37
I10
sg38
I1
sg39
I1
sg40
I265
sg41
I10
sg42
I260
sbsI2
g0
(g33
g2
Ntp3084
Rp3085
(dp3086
g37
I10
sg38
I2
sg39
I1
sg40
I267
sg41
I10
sg42
I260
sbsI3
g0
(g33
g2
Ntp3087
Rp3088
(dp3089
g37
I10
sg38
I3
sg39
I1
sg40
I269
sg41
I10
sg42
I260
sbsI4
g0
(g33
g2
Ntp3090
Rp3091
(dp3092
g37
I10
sg38
I4
sg39
I1
sg40
I263
sg41
I10
sg42
I260
sbssg49
(dp3093
sbssI256
(dp3094
g15
g0
(g18
g2
Ntp3095
Rp3096
(dp3097
g22
(lp3098
sg24
S'ovs-sw261'
p3099
sg26
Nsg27
I261
sg28
Nsg29
Nsg30
Nsg31
(dp3100
I0
g2616
sI1
g0
(g33
g2
Ntp3101
Rp3102
(dp3103
g37
I10
sg38
I1
sg39
I0
sg40
I264
sg41
I10
sg42
I261
sbsI2
g0
(g33
g2
Ntp3104
Rp3105
(dp3106
g37
I10
sg38
I2
sg39
I0
sg40
I266
sg41
I10
sg42
I261
sbsI3
g0
(g33
g2
Ntp3107
Rp3108
(dp3109
g37
I10
sg38
I3
sg39
I0
sg40
I268
sg41
I10
sg42
I261
sbsI4
g0
(g33
g2
Ntp3110
Rp3111
(dp3112
g37
I10
sg38
I4
sg39
I0
sg40
I270
sg41
I10
sg42
I261
sbssg49
(dp3113
sbssI257
(dp3114
g15
g0
(g18
g2
Ntp3115
Rp3116
(dp3117
g22
(lp3118
sg24
S'ovs-sw262'
p3119
sg26
Nsg27
I262
sg28
Nsg29
Nsg30
Nsg31
(dp3120
I0
g2619
sI1
g0
(g33
g2
Ntp3121
Rp3122
(dp3123
g37
I10
sg38
I1
sg39
I1
sg40
I264
sg41
I10
sg42
I262
sbsI2
g0
(g33
g2
Ntp3124
Rp3125
(dp3126
g37
I10
sg38
I2
sg39
I1
sg40
I266
sg41
I10
sg42
I262
sbsI3
g0
(g33
g2
Ntp3127
Rp3128
(dp3129
g37
I10
sg38
I3
sg39
I1
sg40
I268
sg41
I10
sg42
I262
sbsI4
g0
(g33
g2
Ntp3130
Rp3131
(dp3132
g37
I10
sg38
I4
sg39
I1
sg40
I270
sg41
I10
sg42
I262
sbssg49
(dp3133
sbssI258
(dp3134
g15
g0
(g18
g2
Ntp3135
Rp3136
(dp3137
g22
(lp3138
sg24
S'ovs-sw263'
p3139
sg26
Nsg27
I263
sg28
Nsg29
Nsg30
Nsg31
(dp3140
I0
g3071
sI1
g3091
sI2
g0
(g33
g2
Ntp3141
Rp3142
(dp3143
g37
I10
sg38
I2
sg39
I0
sg40
I272
sg41
I10
sg42
I263
sbsI3
g0
(g33
g2
Ntp3144
Rp3145
(dp3146
g37
I10
sg38
I3
sg39
I0
sg40
I271
sg41
I10
sg42
I263
sbssg49
(dp3147
sbssI259
(dp3148
g15
g0
(g18
g2
Ntp3149
Rp3150
(dp3151
g22
(lp3152
sg24
S'ovs-sw264'
p3153
sg26
Nsg27
I264
sg28
Nsg29
Nsg30
Nsg31
(dp3154
I0
g3102
sI1
g3122
sI2
g0
(g33
g2
Ntp3155
Rp3156
(dp3157
g37
I10
sg38
I2
sg39
I1
sg40
I272
sg41
I10
sg42
I264
sbsI3
g0
(g33
g2
Ntp3158
Rp3159
(dp3160
g37
I10
sg38
I3
sg39
I1
sg40
I271
sg41
I10
sg42
I264
sbssg49
(dp3161
sbssI260
(dp3162
g15
g0
(g18
g2
Ntp3163
Rp3164
(dp3165
g22
(lp3166
sg24
S'ovs-sw265'
p3167
sg26
Nsg27
I265
sg28
Nsg29
Nsg30
Nsg31
(dp3168
I0
g3062
sI1
g3082
sI2
g0
(g33
g2
Ntp3169
Rp3170
(dp3171
g37
I10
sg38
I2
sg39
I0
sg40
I273
sg41
I10
sg42
I265
sbsI3
g0
(g33
g2
Ntp3172
Rp3173
(dp3174
g37
I10
sg38
I3
sg39
I0
sg40
I274
sg41
I10
sg42
I265
sbssg49
(dp3175
sbssI261
(dp3176
g15
g0
(g18
g2
Ntp3177
Rp3178
(dp3179
g22
(lp3180
sg24
S'ovs-sw266'
p3181
sg26
Nsg27
I266
sg28
Nsg29
Nsg30
Nsg31
(dp3182
I0
g3105
sI1
g3125
sI2
g0
(g33
g2
Ntp3183
Rp3184
(dp3185
g37
I10
sg38
I2
sg39
I1
sg40
I273
sg41
I10
sg42
I266
sbsI3
g0
(g33
g2
Ntp3186
Rp3187
(dp3188
g37
I10
sg38
I3
sg39
I1
sg40
I274
sg41
I10
sg42
I266
sbssg49
(dp3189
sbssI262
(dp3190
g15
g0
(g18
g2
Ntp3191
Rp3192
(dp3193
g22
(lp3194
sg24
S'ovs-sw267'
p3195
sg26
Nsg27
I267
sg28
Nsg29
Nsg30
Nsg31
(dp3196
I0
g3065
sI1
g3085
sI2
g0
(g33
g2
Ntp3197
Rp3198
(dp3199
g37
I10
sg38
I2
sg39
I0
sg40
I275
sg41
I10
sg42
I267
sbsI3
g0
(g33
g2
Ntp3200
Rp3201
(dp3202
g37
I10
sg38
I3
sg39
I0
sg40
I276
sg41
I10
sg42
I267
sbssg49
(dp3203
sbssI263
(dp3204
g15
g0
(g18
g2
Ntp3205
Rp3206
(dp3207
g22
(lp3208
sg24
S'ovs-sw268'
p3209
sg26
Nsg27
I268
sg28
Nsg29
Nsg30
Nsg31
(dp3210
I0
g3108
sI1
g3128
sI2
g0
(g33
g2
Ntp3211
Rp3212
(dp3213
g37
I10
sg38
I2
sg39
I1
sg40
I275
sg41
I10
sg42
I268
sbsI3
g0
(g33
g2
Ntp3214
Rp3215
(dp3216
g37
I10
sg38
I3
sg39
I1
sg40
I276
sg41
I10
sg42
I268
sbssg49
(dp3217
sbssI264
(dp3218
g15
g0
(g18
g2
Ntp3219
Rp3220
(dp3221
g22
(lp3222
sg24
S'ovs-sw269'
p3223
sg26
Nsg27
I269
sg28
Nsg29
Nsg30
Nsg31
(dp3224
I0
g3068
sI1
g3088
sI2
g0
(g33
g2
Ntp3225
Rp3226
(dp3227
g37
I10
sg38
I2
sg39
I0
sg40
I277
sg41
I10
sg42
I269
sbsI3
g0
(g33
g2
Ntp3228
Rp3229
(dp3230
g37
I10
sg38
I3
sg39
I0
sg40
I278
sg41
I10
sg42
I269
sbssg49
(dp3231
sbssI265
(dp3232
g15
g0
(g18
g2
Ntp3233
Rp3234
(dp3235
g22
(lp3236
sg24
S'ovs-sw270'
p3237
sg26
Nsg27
I270
sg28
Nsg29
Nsg30
Nsg31
(dp3238
I0
g3111
sI1
g3131
sI2
g0
(g33
g2
Ntp3239
Rp3240
(dp3241
g37
I10
sg38
I2
sg39
I1
sg40
I278
sg41
I10
sg42
I270
sbsI3
g0
(g33
g2
Ntp3242
Rp3243
(dp3244
g37
I10
sg38
I3
sg39
I1
sg40
I277
sg41
I10
sg42
I270
sbssg49
(dp3245
sbssI266
(dp3246
g15
g0
(g18
g2
Ntp3247
Rp3248
(dp3249
g22
(lp3250
sg24
S'ovs-sw271'
p3251
sg26
Nsg27
I271
sg28
Nsg29
Nsg30
Nsg31
(dp3252
I0
g3145
sI1
g3159
sI2
g0
(g33
g2
Ntp3253
Rp3254
(dp3255
g37
I10
sg38
I2
sg39
I0
sg40
I280
sg41
I10
sg42
I271
sbsI3
g0
(g33
g2
Ntp3256
Rp3257
(dp3258
g37
I10
sg38
I3
sg39
I0
sg40
I279
sg41
I10
sg42
I271
sbssg49
(dp3259
sbssI267
(dp3260
g15
g0
(g18
g2
Ntp3261
Rp3262
(dp3263
g22
(lp3264
sg24
S'ovs-sw272'
p3265
sg26
Nsg27
I272
sg28
Nsg29
Nsg30
Nsg31
(dp3266
I0
g3142
sI1
g3156
sI2
g0
(g33
g2
Ntp3267
Rp3268
(dp3269
g37
I10
sg38
I2
sg39
I0
sg40
I281
sg41
I10
sg42
I272
sbsI3
g0
(g33
g2
Ntp3270
Rp3271
(dp3272
g37
I10
sg38
I3
sg39
I0
sg40
I282
sg41
I10
sg42
I272
sbssg49
(dp3273
sbssI268
(dp3274
g15
g0
(g18
g2
Ntp3275
Rp3276
(dp3277
g22
(lp3278
sg24
S'ovs-sw273'
p3279
sg26
Nsg27
I273
sg28
Nsg29
Nsg30
Nsg31
(dp3280
I0
g3170
sI1
g3184
sI2
g0
(g33
g2
Ntp3281
Rp3282
(dp3283
g37
I10
sg38
I2
sg39
I0
sg40
I283
sg41
I10
sg42
I273
sbsI3
g0
(g33
g2
Ntp3284
Rp3285
(dp3286
g37
I10
sg38
I3
sg39
I0
sg40
I284
sg41
I10
sg42
I273
sbssg49
(dp3287
sbssI269
(dp3288
g15
g0
(g18
g2
Ntp3289
Rp3290
(dp3291
g22
(lp3292
sg24
S'ovs-sw274'
p3293
sg26
Nsg27
I274
sg28
Nsg29
Nsg30
Nsg31
(dp3294
I0
g3173
sI1
g3187
sI2
g0
(g33
g2
Ntp3295
Rp3296
(dp3297
g37
I10
sg38
I2
sg39
I0
sg40
I285
sg41
I10
sg42
I274
sbsI3
g0
(g33
g2
Ntp3298
Rp3299
(dp3300
g37
I10
sg38
I3
sg39
I0
sg40
I286
sg41
I10
sg42
I274
sbssg49
(dp3301
sbssI270
(dp3302
g15
g0
(g18
g2
Ntp3303
Rp3304
(dp3305
g22
(lp3306
sg24
S'ovs-sw275'
p3307
sg26
Nsg27
I275
sg28
Nsg29
Nsg30
Nsg31
(dp3308
I0
g3198
sI1
g3212
sI2
g0
(g33
g2
Ntp3309
Rp3310
(dp3311
g37
I10
sg38
I2
sg39
I0
sg40
I288
sg41
I10
sg42
I275
sbsI3
g0
(g33
g2
Ntp3312
Rp3313
(dp3314
g37
I10
sg38
I3
sg39
I0
sg40
I287
sg41
I10
sg42
I275
sbssg49
(dp3315
sbssI271
(dp3316
g15
g0
(g18
g2
Ntp3317
Rp3318
(dp3319
g22
(lp3320
sg24
S'ovs-sw276'
p3321
sg26
Nsg27
I276
sg28
Nsg29
Nsg30
Nsg31
(dp3322
I0
g3201
sI1
g3215
sI2
g0
(g33
g2
Ntp3323
Rp3324
(dp3325
g37
I10
sg38
I2
sg39
I0
sg40
I289
sg41
I10
sg42
I276
sbsI3
g0
(g33
g2
Ntp3326
Rp3327
(dp3328
g37
I10
sg38
I3
sg39
I0
sg40
I290
sg41
I10
sg42
I276
sbssg49
(dp3329
sbssI272
(dp3330
g15
g0
(g18
g2
Ntp3331
Rp3332
(dp3333
g22
(lp3334
sg24
S'ovs-sw277'
p3335
sg26
Nsg27
I277
sg28
Nsg29
Nsg30
Nsg31
(dp3336
I0
g3226
sI1
g3243
sI2
g0
(g33
g2
Ntp3337
Rp3338
(dp3339
g37
I10
sg38
I2
sg39
I0
sg40
I291
sg41
I10
sg42
I277
sbsI3
g0
(g33
g2
Ntp3340
Rp3341
(dp3342
g37
I10
sg38
I3
sg39
I0
sg40
I292
sg41
I10
sg42
I277
sbssg49
(dp3343
sbssI273
(dp3344
g15
g0
(g18
g2
Ntp3345
Rp3346
(dp3347
g22
(lp3348
sg24
S'ovs-sw278'
p3349
sg26
Nsg27
I278
sg28
Nsg29
Nsg30
Nsg31
(dp3350
I0
g3229
sI1
g3240
sI2
g0
(g33
g2
Ntp3351
Rp3352
(dp3353
g37
I10
sg38
I2
sg39
I0
sg40
I294
sg41
I10
sg42
I278
sbsI3
g0
(g33
g2
Ntp3354
Rp3355
(dp3356
g37
I10
sg38
I3
sg39
I0
sg40
I293
sg41
I10
sg42
I278
sbssg49
(dp3357
sbssI274
(dp3358
g15
g0
(g18
g2
Ntp3359
Rp3360
(dp3361
g22
(lp3362
sg24
S'ovs-sw279'
p3363
sg26
Nsg27
I279
sg28
Nsg29
Nsg30
Nsg31
(dp3364
I0
g3257
ssg49
(dp3365
sbssI275
(dp3366
g15
g0
(g18
g2
Ntp3367
Rp3368
(dp3369
g22
(lp3370
sg24
S'ovs-sw280'
p3371
sg26
Nsg27
I280
sg28
Nsg29
Nsg30
Nsg31
(dp3372
I0
g3254
ssg49
(dp3373
sbssI276
(dp3374
g15
g0
(g18
g2
Ntp3375
Rp3376
(dp3377
g22
(lp3378
sg24
S'ovs-sw281'
p3379
sg26
Nsg27
I281
sg28
Nsg29
Nsg30
Nsg31
(dp3380
I0
g3268
ssg49
(dp3381
sbssI277
(dp3382
g15
g0
(g18
g2
Ntp3383
Rp3384
(dp3385
g22
(lp3386
sg24
S'ovs-sw282'
p3387
sg26
Nsg27
I282
sg28
Nsg29
Nsg30
Nsg31
(dp3388
I0
g3271
ssg49
(dp3389
sbssI278
(dp3390
g15
g0
(g18
g2
Ntp3391
Rp3392
(dp3393
g22
(lp3394
sg24
S'ovs-sw283'
p3395
sg26
Nsg27
I283
sg28
Nsg29
Nsg30
Nsg31
(dp3396
I0
g3282
ssg49
(dp3397
sbssI279
(dp3398
g15
g0
(g18
g2
Ntp3399
Rp3400
(dp3401
g22
(lp3402
sg24
S'ovs-sw284'
p3403
sg26
Nsg27
I284
sg28
Nsg29
Nsg30
Nsg31
(dp3404
I0
g3285
ssg49
(dp3405
sbssI280
(dp3406
g15
g0
(g18
g2
Ntp3407
Rp3408
(dp3409
g22
(lp3410
sg24
S'ovs-sw285'
p3411
sg26
Nsg27
I285
sg28
Nsg29
Nsg30
Nsg31
(dp3412
I0
g3296
ssg49
(dp3413
sbssI281
(dp3414
g15
g0
(g18
g2
Ntp3415
Rp3416
(dp3417
g22
(lp3418
sg24
S'ovs-sw286'
p3419
sg26
Nsg27
I286
sg28
Nsg29
Nsg30
Nsg31
(dp3420
I0
g3299
ssg49
(dp3421
sbssI282
(dp3422
g15
g0
(g18
g2
Ntp3423
Rp3424
(dp3425
g22
(lp3426
sg24
S'ovs-sw287'
p3427
sg26
Nsg27
I287
sg28
Nsg29
Nsg30
Nsg31
(dp3428
I0
g3313
ssg49
(dp3429
sbssI283
(dp3430
g15
g0
(g18
g2
Ntp3431
Rp3432
(dp3433
g22
(lp3434
sg24
S'ovs-sw288'
p3435
sg26
Nsg27
I288
sg28
Nsg29
Nsg30
Nsg31
(dp3436
I0
g3310
ssg49
(dp3437
sbssI284
(dp3438
g15
g0
(g18
g2
Ntp3439
Rp3440
(dp3441
g22
(lp3442
sg24
S'ovs-sw289'
p3443
sg26
Nsg27
I289
sg28
Nsg29
Nsg30
Nsg31
(dp3444
I0
g3324
ssg49
(dp3445
sbssI285
(dp3446
g15
g0
(g18
g2
Ntp3447
Rp3448
(dp3449
g22
(lp3450
sg24
S'ovs-sw290'
p3451
sg26
Nsg27
I290
sg28
Nsg29
Nsg30
Nsg31
(dp3452
I0
g3327
ssg49
(dp3453
sbssI286
(dp3454
g15
g0
(g18
g2
Ntp3455
Rp3456
(dp3457
g22
(lp3458
sg24
S'ovs-sw291'
p3459
sg26
Nsg27
I291
sg28
Nsg29
Nsg30
Nsg31
(dp3460
I0
g3338
ssg49
(dp3461
sbssI287
(dp3462
g15
g0
(g18
g2
Ntp3463
Rp3464
(dp3465
g22
(lp3466
sg24
S'ovs-sw292'
p3467
sg26
Nsg27
I292
sg28
Nsg29
Nsg30
Nsg31
(dp3468
I0
g3341
ssg49
(dp3469
sbssI288
(dp3470
g15
g0
(g18
g2
Ntp3471
Rp3472
(dp3473
g22
(lp3474
sg24
S'ovs-sw293'
p3475
sg26
Nsg27
I293
sg28
Nsg29
Nsg30
Nsg31
(dp3476
I0
g3355
ssg49
(dp3477
sbssI289
(dp3478
g15
g0
(g18
g2
Ntp3479
Rp3480
(dp3481
g22
(lp3482
sg24
S'ovs-sw294'
p3483
sg26
Nsg27
I294
sg28
Nsg29
Nsg30
Nsg31
(dp3484
I0
g3352
ssg49
(dp3485
sbsssS'edge_key_dict_factory'
p3486
c__builtin__
dict
p3487
sS'node_dict_factory'
p3488
g3487
sS'edge_attr_dict_factory'
p3489
g3487
sS'edge'
p3490
(dp3491
I1
(dp3492
I4
(dp3493
I0
(dp3494
S'link'
p3495
g35
sssI13
(dp3496
I0
(dp3497
g3495
g44
sssI14
(dp3498
I0
(dp3499
g3495
g47
ssssI2
(dp3500
I20
(dp3501
I0
(dp3502
g3495
g62
sssI4
(dp3503
I0
(dp3504
g3495
g59
sssI21
(dp3505
I0
(dp3506
g3495
g65
ssssI3
(dp3507
I32
(dp3508
I0
(dp3509
g3495
g79
sssI4
(dp3510
I0
(dp3511
g3495
g85
sssI12
(dp3512
I0
(dp3513
g3495
g76
sssI31
(dp3514
I0
(dp3515
g3495
g82
ssssI4
(dp3516
I1
g3493
sI2
g3503
sI3
g3510
sI105
(dp3517
I0
(dp3518
g3495
g102
sssI106
(dp3519
I0
(dp3520
g3495
g105
sssI11
(dp3521
I0
(dp3522
g3495
g96
sssI12
(dp3523
I0
(dp3524
g3495
g99
ssssI5
(dp3525
I12
(dp3526
I0
(dp3527
g3495
g122
sssI115
(dp3528
I0
(dp3529
g3495
g116
sssI116
(dp3530
I0
(dp3531
g3495
g119
ssssI6
(dp3532
I12
(dp3533
I0
(dp3534
g3495
g139
sssI147
(dp3535
I0
(dp3536
g3495
g133
sssI148
(dp3537
I0
(dp3538
g3495
g136
ssssI7
(dp3539
I154
(dp3540
I0
(dp3541
g3495
g156
sssI155
(dp3542
I0
(dp3543
g3495
g150
sssI12
(dp3544
I0
(dp3545
g3495
g153
ssssI8
(dp3546
I12
(dp3547
I0
(dp3548
g3495
g173
sssI164
(dp3549
I0
(dp3550
g3495
g167
sssI165
(dp3551
I0
(dp3552
g3495
g170
ssssI9
(dp3553
I12
(dp3554
I0
(dp3555
g3495
g190
sssI172
(dp3556
I0
(dp3557
g3495
g184
sssI173
(dp3558
I0
(dp3559
g3495
g187
ssssI10
(dp3560
I11
(dp3561
I0
(dp3562
g3495
g204
sssI188
(dp3563
I0
(dp3564
g3495
g201
sssI189
(dp3565
I0
(dp3566
g3495
g207
ssssI11
(dp3567
I200
(dp3568
I0
(dp3569
g3495
g221
sssI12
(dp3570
I0
(dp3571
g3495
g218
sssI10
g3561
sI4
g3521
sI201
(dp3572
I0
(dp3573
g3495
g224
ssssI12
(dp3574
I3
g3512
sI4
g3523
sI5
g3526
sI6
g3533
sI7
g3544
sI8
g3547
sI9
g3554
sI11
g3570
sI216
(dp3575
I0
(dp3576
g3495
g235
sssI217
(dp3577
I0
(dp3578
g3495
g238
ssssI13
(dp3579
I16
(dp3580
I0
(dp3581
g3495
g252
sssI1
g3496
sI14
(dp3582
I0
(dp3583
g3495
g249
ssssI14
(dp3584
I1
g3498
sI18
(dp3585
I0
(dp3586
g3495
g263
sssI13
g3582
ssI15
(dp3587
I16
(dp3588
I0
(dp3589
g3495
g274
ssssI16
(dp3590
I17
(dp3591
I0
(dp3592
g3495
g285
sssI13
g3580
sI15
g3588
ssI17
(dp3593
I16
g3591
ssI18
(dp3594
I19
(dp3595
I0
(dp3596
g3495
g304
sssI14
g3585
ssI19
(dp3597
I18
g3595
ssI20
(dp3598
I25
(dp3599
I0
(dp3600
g3495
g323
sssI2
g3501
sI21
(dp3601
I0
(dp3602
g3495
g326
ssssI21
(dp3603
I2
g3505
sI20
g3601
sI30
(dp3604
I0
(dp3605
g3495
g337
ssssI22
(dp3606
I25
(dp3607
I0
(dp3608
g3495
g348
ssssI23
(dp3609
I24
(dp3610
I0
(dp3611
g3495
g359
ssssI24
(dp3612
I25
(dp3613
I0
(dp3614
g3495
g370
sssI23
g3610
ssI25
(dp3615
I24
g3613
sI26
(dp3616
I0
(dp3617
g3495
g381
sssI20
g3599
sI22
g3607
ssI26
(dp3618
I25
g3616
ssI27
(dp3619
I30
(dp3620
I0
(dp3621
g3495
g400
ssssI28
(dp3622
I29
(dp3623
I0
(dp3624
g3495
g411
ssssI29
(dp3625
I28
g3623
sI30
(dp3626
I0
(dp3627
g3495
g422
ssssI30
(dp3628
I27
g3620
sI21
g3604
sI29
g3626
ssI31
(dp3629
I32
(dp3630
I0
(dp3631
g3495
g441
sssI33
(dp3632
I0
(dp3633
g3495
g444
sssI34
(dp3634
I0
(dp3635
g3495
g447
sssI3
g3514
sI36
(dp3636
I0
(dp3637
g3495
g453
sssI35
(dp3638
I0
(dp3639
g3495
g450
ssssI32
(dp3640
I3
g3508
sI69
(dp3641
I0
(dp3642
g3495
g464
sssI70
(dp3643
I0
(dp3644
g3495
g467
sssI71
(dp3645
I0
(dp3646
g3495
g470
sssI72
(dp3647
I0
(dp3648
g3495
g473
sssI31
g3630
ssI33
(dp3649
I41
(dp3650
I0
(dp3651
g3495
g490
sssI39
(dp3652
I0
(dp3653
g3495
g487
sssI37
(dp3654
I0
(dp3655
g3495
g484
sssI43
(dp3656
I0
(dp3657
g3495
g493
sssI31
g3632
ssI34
(dp3658
I41
(dp3659
I0
(dp3660
g3495
g510
sssI39
(dp3661
I0
(dp3662
g3495
g507
sssI37
(dp3663
I0
(dp3664
g3495
g504
sssI43
(dp3665
I0
(dp3666
g3495
g513
sssI31
g3634
ssI35
(dp3667
I40
(dp3668
I0
(dp3669
g3495
g527
sssI42
(dp3670
I0
(dp3671
g3495
g530
sssI44
(dp3672
I0
(dp3673
g3495
g533
sssI38
(dp3674
I0
(dp3675
g3495
g524
sssI31
g3638
ssI36
(dp3676
I40
(dp3677
I0
(dp3678
g3495
g547
sssI42
(dp3679
I0
(dp3680
g3495
g550
sssI44
(dp3681
I0
(dp3682
g3495
g553
sssI38
(dp3683
I0
(dp3684
g3495
g544
sssI31
g3636
ssI37
(dp3685
I33
g3654
sI34
g3663
sI45
(dp3686
I0
(dp3687
g3495
g564
sssI46
(dp3688
I0
(dp3689
g3495
g567
ssssI38
(dp3690
I35
g3674
sI36
g3683
sI45
(dp3691
I0
(dp3692
g3495
g578
sssI46
(dp3693
I0
(dp3694
g3495
g581
ssssI39
(dp3695
I48
(dp3696
I0
(dp3697
g3495
g595
sssI33
g3652
sI34
g3661
sI47
(dp3698
I0
(dp3699
g3495
g592
ssssI40
(dp3700
I48
(dp3701
I0
(dp3702
g3495
g609
sssI35
g3668
sI36
g3677
sI47
(dp3703
I0
(dp3704
g3495
g606
ssssI41
(dp3705
I33
g3650
sI34
g3659
sI50
(dp3706
I0
(dp3707
g3495
g623
sssI49
(dp3708
I0
(dp3709
g3495
g620
ssssI42
(dp3710
I49
(dp3711
I0
(dp3712
g3495
g634
sssI50
(dp3713
I0
(dp3714
g3495
g637
sssI35
g3670
sI36
g3679
ssI43
(dp3715
I33
g3656
sI34
g3665
sI51
(dp3716
I0
(dp3717
g3495
g648
sssI52
(dp3718
I0
(dp3719
g3495
g651
ssssI44
(dp3720
I52
(dp3721
I0
(dp3722
g3495
g662
sssI35
g3672
sI36
g3681
sI51
(dp3723
I0
(dp3724
g3495
g665
ssssI45
(dp3725
I54
(dp3726
I0
(dp3727
g3495
g676
sssI37
g3686
sI38
g3691
sI53
(dp3728
I0
(dp3729
g3495
g679
ssssI46
(dp3730
I56
(dp3731
I0
(dp3732
g3495
g693
sssI37
g3688
sI38
g3693
sI55
(dp3733
I0
(dp3734
g3495
g690
ssssI47
(dp3735
I40
g3703
sI57
(dp3736
I0
(dp3737
g3495
g704
sssI58
(dp3738
I0
(dp3739
g3495
g707
sssI39
g3698
ssI48
(dp3740
I40
g3701
sI59
(dp3741
I0
(dp3742
g3495
g718
sssI60
(dp3743
I0
(dp3744
g3495
g721
sssI39
g3696
ssI49
(dp3745
I41
g3708
sI42
g3711
sI61
(dp3746
I0
(dp3747
g3495
g732
sssI62
(dp3748
I0
(dp3749
g3495
g735
ssssI50
(dp3750
I64
(dp3751
I0
(dp3752
g3495
g749
sssI41
g3706
sI42
g3713
sI63
(dp3753
I0
(dp3754
g3495
g746
ssssI51
(dp3755
I65
(dp3756
I0
(dp3757
g3495
g760
sssI66
(dp3758
I0
(dp3759
g3495
g763
sssI43
g3716
sI44
g3723
ssI52
(dp3760
I68
(dp3761
I0
(dp3762
g3495
g774
sssI67
(dp3763
I0
(dp3764
g3495
g777
sssI43
g3718
sI44
g3721
ssI53
(dp3765
I45
g3728
ssI54
(dp3766
I45
g3726
ssI55
(dp3767
I46
g3733
ssI56
(dp3768
I46
g3731
ssI57
(dp3769
I47
g3736
ssI58
(dp3770
I47
g3738
ssI59
(dp3771
I48
g3741
ssI60
(dp3772
I48
g3743
ssI61
(dp3773
I49
g3746
ssI62
(dp3774
I49
g3748
ssI63
(dp3775
I50
g3753
ssI64
(dp3776
I50
g3751
ssI65
(dp3777
I51
g3756
ssI66
(dp3778
I51
g3758
ssI67
(dp3779
I52
g3763
ssI68
(dp3780
I52
g3761
ssI69
(dp3781
I32
g3641
sI73
(dp3782
I0
(dp3783
g3495
g922
sssI75
(dp3784
I0
(dp3785
g3495
g925
sssI77
(dp3786
I0
(dp3787
g3495
g916
sssI79
(dp3788
I0
(dp3789
g3495
g919
ssssI70
(dp3790
I32
g3643
sI73
(dp3791
I0
(dp3792
g3495
g942
sssI75
(dp3793
I0
(dp3794
g3495
g945
sssI77
(dp3795
I0
(dp3796
g3495
g936
sssI79
(dp3797
I0
(dp3798
g3495
g939
ssssI71
(dp3799
I32
g3645
sI80
(dp3800
I0
(dp3801
g3495
g959
sssI74
(dp3802
I0
(dp3803
g3495
g962
sssI76
(dp3804
I0
(dp3805
g3495
g965
sssI78
(dp3806
I0
(dp3807
g3495
g956
ssssI72
(dp3808
I32
g3647
sI80
(dp3809
I0
(dp3810
g3495
g979
sssI74
(dp3811
I0
(dp3812
g3495
g982
sssI76
(dp3813
I0
(dp3814
g3495
g985
sssI78
(dp3815
I0
(dp3816
g3495
g976
ssssI73
(dp3817
I81
(dp3818
I0
(dp3819
g3495
g996
sssI82
(dp3820
I0
(dp3821
g3495
g999
sssI69
g3782
sI70
g3791
ssI74
(dp3822
I72
g3811
sI81
(dp3823
I0
(dp3824
g3495
g1010
sssI82
(dp3825
I0
(dp3826
g3495
g1013
sssI71
g3802
ssI75
(dp3827
I83
(dp3828
I0
(dp3829
g3495
g1024
sssI84
(dp3830
I0
(dp3831
g3495
g1027
sssI69
g3784
sI70
g3793
ssI76
(dp3832
I72
g3813
sI83
(dp3833
I0
(dp3834
g3495
g1038
sssI84
(dp3835
I0
(dp3836
g3495
g1041
sssI71
g3804
ssI77
(dp3837
I86
(dp3838
I0
(dp3839
g3495
g1055
sssI69
g3786
sI70
g3795
sI85
(dp3840
I0
(dp3841
g3495
g1052
ssssI78
(dp3842
I72
g3815
sI85
(dp3843
I0
(dp3844
g3495
g1066
sssI86
(dp3845
I0
(dp3846
g3495
g1069
sssI71
g3806
ssI79
(dp3847
I88
(dp3848
I0
(dp3849
g3495
g1083
sssI69
g3788
sI70
g3797
sI87
(dp3850
I0
(dp3851
g3495
g1080
ssssI80
(dp3852
I72
g3809
sI88
(dp3853
I0
(dp3854
g3495
g1094
sssI87
(dp3855
I0
(dp3856
g3495
g1097
sssI71
g3800
ssI81
(dp3857
I73
g3818
sI74
g3823
sI90
(dp3858
I0
(dp3859
g3495
g1111
sssI89
(dp3860
I0
(dp3861
g3495
g1108
ssssI82
(dp3862
I73
g3820
sI74
g3825
sI91
(dp3863
I0
(dp3864
g3495
g1122
sssI92
(dp3865
I0
(dp3866
g3495
g1125
ssssI83
(dp3867
I75
g3828
sI76
g3833
sI93
(dp3868
I0
(dp3869
g3495
g1136
sssI94
(dp3870
I0
(dp3871
g3495
g1139
ssssI84
(dp3872
I96
(dp3873
I0
(dp3874
g3495
g1153
sssI75
g3830
sI76
g3835
sI95
(dp3875
I0
(dp3876
g3495
g1150
ssssI85
(dp3877
I97
(dp3878
I0
(dp3879
g3495
g1164
sssI98
(dp3880
I0
(dp3881
g3495
g1167
sssI77
g3840
sI78
g3843
ssI86
(dp3882
I99
(dp3883
I0
(dp3884
g3495
g1178
sssI100
(dp3885
I0
(dp3886
g3495
g1181
sssI77
g3838
sI78
g3845
ssI87
(dp3887
I80
g3855
sI101
(dp3888
I0
(dp3889
g3495
g1192
sssI102
(dp3890
I0
(dp3891
g3495
g1195
sssI79
g3850
ssI88
(dp3892
I80
g3853
sI104
(dp3893
I0
(dp3894
g3495
g1206
sssI103
(dp3895
I0
(dp3896
g3495
g1209
sssI79
g3848
ssI89
(dp3897
I81
g3860
ssI90
(dp3898
I81
g3858
ssI91
(dp3899
I82
g3863
ssI92
(dp3900
I82
g3865
ssI93
(dp3901
I83
g3868
ssI94
(dp3902
I83
g3870
ssI95
(dp3903
I84
g3875
ssI96
(dp3904
I84
g3873
ssI97
(dp3905
I85
g3878
ssI98
(dp3906
I85
g3880
ssI99
(dp3907
I86
g3883
ssI100
(dp3908
I86
g3885
ssI101
(dp3909
I87
g3888
ssI102
(dp3910
I87
g3890
ssI103
(dp3911
I88
g3895
ssI104
(dp3912
I88
g3893
ssI105
(dp3913
I106
(dp3914
I0
(dp3915
g3495
g1351
sssI4
g3517
sI111
(dp3916
I0
(dp3917
g3495
g1348
ssssI106
(dp3918
I112
(dp3919
I0
(dp3920
g3495
g1362
sssI105
g3914
sI4
g3519
ssI107
(dp3921
I111
(dp3922
I0
(dp3923
g3495
g1373
ssssI108
(dp3924
I109
(dp3925
I0
(dp3926
g3495
g1384
sssI111
(dp3927
I0
(dp3928
g3495
g1387
ssssI109
(dp3929
I108
g3925
sI110
(dp3930
I0
(dp3931
g3495
g1398
sssI111
(dp3932
I0
(dp3933
g3495
g1401
ssssI110
(dp3934
I109
g3930
ssI111
(dp3935
I105
g3916
sI107
g3922
sI108
g3927
sI109
g3932
ssI112
(dp3936
I113
(dp3937
I0
(dp3938
g3495
g1428
sssI106
g3919
sI114
(dp3939
I0
(dp3940
g3495
g1431
ssssI113
(dp3941
I112
g3937
ssI114
(dp3942
I112
g3939
ssI115
(dp3943
I129
(dp3944
I0
(dp3945
g3495
g1464
sssI130
(dp3946
I0
(dp3947
g3495
g1467
sssI131
(dp3948
I0
(dp3949
g3495
g1458
sssI116
(dp3950
I0
(dp3951
g3495
g1461
sssI5
g3528
ssI116
(dp3952
I144
(dp3953
I0
(dp3954
g3495
g1478
sssI145
(dp3955
I0
(dp3956
g3495
g1481
sssI146
(dp3957
I0
(dp3958
g3495
g1484
sssI115
g3950
sI5
g3530
ssI117
(dp3959
I129
(dp3960
I0
(dp3961
g3495
g1498
sssI126
(dp3962
I0
(dp3963
g3495
g1495
ssssI118
(dp3964
I130
(dp3965
I0
(dp3966
g3495
g1512
sssI126
(dp3967
I0
(dp3968
g3495
g1509
ssssI119
(dp3969
I131
(dp3970
I0
(dp3971
g3495
g1523
sssI126
(dp3972
I0
(dp3973
g3495
g1526
ssssI120
(dp3974
I129
(dp3975
I0
(dp3976
g3495
g1540
sssI127
(dp3977
I0
(dp3978
g3495
g1537
ssssI121
(dp3979
I130
(dp3980
I0
(dp3981
g3495
g1554
sssI127
(dp3982
I0
(dp3983
g3495
g1551
ssssI122
(dp3984
I131
(dp3985
I0
(dp3986
g3495
g1565
sssI127
(dp3987
I0
(dp3988
g3495
g1568
ssssI123
(dp3989
I128
(dp3990
I0
(dp3991
g3495
g1579
sssI129
(dp3992
I0
(dp3993
g3495
g1582
ssssI124
(dp3994
I128
(dp3995
I0
(dp3996
g3495
g1593
sssI130
(dp3997
I0
(dp3998
g3495
g1596
ssssI125
(dp3999
I128
(dp4000
I0
(dp4001
g3495
g1610
sssI131
(dp4002
I0
(dp4003
g3495
g1607
ssssI126
(dp4004
I117
g3962
sI118
g3967
sI119
g3972
ssI127
(dp4005
I120
g3977
sI121
g3982
sI122
g3987
ssI128
(dp4006
I123
g3990
sI124
g3995
sI125
g4000
ssI129
(dp4007
I120
g3975
sI123
g3992
sI115
g3944
sI117
g3960
ssI130
(dp4008
I121
g3980
sI115
g3946
sI124
g3997
sI118
g3965
ssI131
(dp4009
I122
g3985
sI115
g3948
sI125
g4002
sI119
g3970
ssI132
(dp4010
I144
(dp4011
I0
(dp4012
g3495
g1672
sssI141
(dp4013
I0
(dp4014
g3495
g1669
ssssI133
(dp4015
I145
(dp4016
I0
(dp4017
g3495
g1686
sssI141
(dp4018
I0
(dp4019
g3495
g1683
ssssI134
(dp4020
I146
(dp4021
I0
(dp4022
g3495
g1700
sssI141
(dp4023
I0
(dp4024
g3495
g1697
ssssI135
(dp4025
I144
(dp4026
I0
(dp4027
g3495
g1714
sssI142
(dp4028
I0
(dp4029
g3495
g1711
ssssI136
(dp4030
I145
(dp4031
I0
(dp4032
g3495
g1728
sssI142
(dp4033
I0
(dp4034
g3495
g1725
ssssI137
(dp4035
I146
(dp4036
I0
(dp4037
g3495
g1742
sssI142
(dp4038
I0
(dp4039
g3495
g1739
ssssI138
(dp4040
I144
(dp4041
I0
(dp4042
g3495
g1756
sssI143
(dp4043
I0
(dp4044
g3495
g1753
ssssI139
(dp4045
I145
(dp4046
I0
(dp4047
g3495
g1770
sssI143
(dp4048
I0
(dp4049
g3495
g1767
ssssI140
(dp4050
I146
(dp4051
I0
(dp4052
g3495
g1784
sssI143
(dp4053
I0
(dp4054
g3495
g1781
ssssI141
(dp4055
I132
g4013
sI133
g4018
sI134
g4023
ssI142
(dp4056
I136
g4033
sI137
g4038
sI135
g4028
ssI143
(dp4057
I138
g4043
sI139
g4048
sI140
g4053
ssI144
(dp4058
I132
g4011
sI138
g4041
sI116
g3953
sI135
g4026
ssI145
(dp4059
I136
g4031
sI139
g4046
sI116
g3955
sI133
g4016
ssI146
(dp4060
I137
g4036
sI140
g4051
sI116
g3957
sI134
g4021
ssI147
(dp4061
I148
(dp4062
I0
(dp4063
g3495
g1843
sssI149
(dp4064
I0
(dp4065
g3495
g1846
sssI6
g3535
ssI148
(dp4066
I152
(dp4067
I0
(dp4068
g3495
g1857
sssI147
g4062
sI6
g3537
ssI149
(dp4069
I147
g4064
sI150
(dp4070
I0
(dp4071
g3495
g1868
ssssI150
(dp4072
I149
g4070
ssI151
(dp4073
I152
(dp4074
I0
(dp4075
g3495
g1887
ssssI152
(dp4076
I153
(dp4077
I0
(dp4078
g3495
g1898
sssI148
g4067
sI151
g4074
ssI153
(dp4079
I152
g4077
ssI154
(dp4080
I155
(dp4081
I0
(dp4082
g3495
g1917
sssI159
(dp4083
I0
(dp4084
g3495
g1920
sssI7
g3540
ssI155
(dp4085
I161
(dp4086
I0
(dp4087
g3495
g1931
sssI154
g4081
sI7
g3542
ssI156
(dp4088
I159
(dp4089
I0
(dp4090
g3495
g1942
ssssI157
(dp4091
I158
(dp4092
I0
(dp4093
g3495
g1953
ssssI158
(dp4094
I157
g4092
sI159
(dp4095
I0
(dp4096
g3495
g1964
ssssI159
(dp4097
I154
g4083
sI156
g4089
sI158
g4095
ssI160
(dp4098
I161
(dp4099
I0
(dp4100
g3495
g1983
ssssI161
(dp4101
I160
g4099
sI155
g4086
sI163
(dp4102
I0
(dp4103
g3495
g1994
ssssI162
(dp4104
I163
(dp4105
I0
(dp4106
g3495
g2005
ssssI163
(dp4107
I161
g4102
sI162
g4105
ssI164
(dp4108
I8
g3549
sI165
(dp4109
I0
(dp4110
g3495
g2024
sssI166
(dp4111
I0
(dp4112
g3495
g2027
ssssI165
(dp4113
I8
g3551
sI169
(dp4114
I0
(dp4115
g3495
g2038
sssI164
g4109
ssI166
(dp4116
I168
(dp4117
I0
(dp4118
g3495
g2052
sssI164
g4111
sI167
(dp4119
I0
(dp4120
g3495
g2049
ssssI167
(dp4121
I166
g4119
ssI168
(dp4122
I166
g4117
ssI169
(dp4123
I170
(dp4124
I0
(dp4125
g3495
g2082
sssI171
(dp4126
I0
(dp4127
g3495
g2079
sssI165
g4114
ssI170
(dp4128
I169
g4124
sI171
(dp4129
I0
(dp4130
g3495
g2093
ssssI171
(dp4131
I169
g4126
sI170
g4129
ssI172
(dp4132
I9
g3556
sI173
(dp4133
I0
(dp4134
g3495
g2112
sssI174
(dp4135
I0
(dp4136
g3495
g2115
ssssI173
(dp4137
I9
g3558
sI172
g4133
sI181
(dp4138
I0
(dp4139
g3495
g2126
ssssI174
(dp4140
I176
(dp4141
I0
(dp4142
g3495
g2140
sssI172
g4135
sI175
(dp4143
I0
(dp4144
g3495
g2137
ssssI175
(dp4145
I177
(dp4146
I0
(dp4147
g3495
g2151
sssI174
g4143
ssI176
(dp4148
I178
(dp4149
I0
(dp4150
g3495
g2162
sssI174
g4141
ssI177
(dp4151
I179
(dp4152
I0
(dp4153
g3495
g2173
sssI175
g4146
ssI178
(dp4154
I176
g4149
sI180
(dp4155
I0
(dp4156
g3495
g2184
ssssI179
(dp4157
I177
g4152
ssI180
(dp4158
I178
g4155
ssI181
(dp4159
I173
g4138
sI182
(dp4160
I0
(dp4161
g3495
g2211
sssI183
(dp4162
I0
(dp4163
g3495
g2214
ssssI182
(dp4164
I184
(dp4165
I0
(dp4166
g3495
g2225
sssI181
g4160
ssI183
(dp4167
I185
(dp4168
I0
(dp4169
g3495
g2236
sssI181
g4162
ssI184
(dp4170
I186
(dp4171
I0
(dp4172
g3495
g2247
sssI182
g4165
ssI185
(dp4173
I187
(dp4174
I0
(dp4175
g3495
g2258
sssI183
g4168
ssI186
(dp4176
I184
g4171
ssI187
(dp4177
I185
g4174
ssI188
(dp4178
I194
(dp4179
I0
(dp4180
g3495
g2288
sssI10
g3563
sI189
(dp4181
I0
(dp4182
g3495
g2285
ssssI189
(dp4183
I10
g3565
sI188
g4181
sI199
(dp4184
I0
(dp4185
g3495
g2299
ssssI190
(dp4186
I194
(dp4187
I0
(dp4188
g3495
g2310
ssssI191
(dp4189
I194
(dp4190
I0
(dp4191
g3495
g2321
ssssI192
(dp4192
I194
(dp4193
I0
(dp4194
g3495
g2332
ssssI193
(dp4195
I194
(dp4196
I0
(dp4197
g3495
g2343
ssssI194
(dp4198
I192
g4193
sI193
g4196
sI188
g4179
sI190
g4187
sI191
g4190
ssI195
(dp4199
I199
(dp4200
I0
(dp4201
g3495
g2362
ssssI196
(dp4202
I199
(dp4203
I0
(dp4204
g3495
g2373
ssssI197
(dp4205
I199
(dp4206
I0
(dp4207
g3495
g2384
ssssI198
(dp4208
I199
(dp4209
I0
(dp4210
g3495
g2395
ssssI199
(dp4211
I195
g4200
sI196
g4203
sI189
g4184
sI198
g4209
sI197
g4206
ssI200
(dp4212
I201
(dp4213
I0
(dp4214
g3495
g2414
sssI202
(dp4215
I0
(dp4216
g3495
g2417
sssI11
g3568
ssI201
(dp4217
I200
g4213
sI209
(dp4218
I0
(dp4219
g3495
g2428
sssI11
g3572
ssI202
(dp4220
I200
g4215
sI203
(dp4221
I0
(dp4222
g3495
g2439
sssI204
(dp4223
I0
(dp4224
g3495
g2442
ssssI203
(dp4225
I202
g4221
sI205
(dp4226
I0
(dp4227
g3495
g2453
ssssI204
(dp4228
I202
g4223
sI206
(dp4229
I0
(dp4230
g3495
g2464
ssssI205
(dp4231
I203
g4226
sI207
(dp4232
I0
(dp4233
g3495
g2475
ssssI206
(dp4234
I208
(dp4235
I0
(dp4236
g3495
g2486
sssI204
g4229
ssI207
(dp4237
I205
g4232
ssI208
(dp4238
I206
g4235
ssI209
(dp4239
I201
g4218
sI210
(dp4240
I0
(dp4241
g3495
g2516
sssI211
(dp4242
I0
(dp4243
g3495
g2513
ssssI210
(dp4244
I209
g4240
sI212
(dp4245
I0
(dp4246
g3495
g2527
ssssI211
(dp4247
I209
g4242
sI213
(dp4248
I0
(dp4249
g3495
g2538
ssssI212
(dp4250
I210
g4245
sI214
(dp4251
I0
(dp4252
g3495
g2549
ssssI213
(dp4253
I211
g4248
sI215
(dp4254
I0
(dp4255
g3495
g2560
ssssI214
(dp4256
I212
g4251
ssI215
(dp4257
I213
g4254
ssI216
(dp4258
I12
g3575
sI217
(dp4259
I0
(dp4260
g3495
g2596
sssI218
(dp4261
I0
(dp4262
g3495
g2599
sssI219
(dp4263
I0
(dp4264
g3495
g2587
sssI220
(dp4265
I0
(dp4266
g3495
g2590
sssI221
(dp4267
I0
(dp4268
g3495
g2593
ssssI217
(dp4269
I256
(dp4270
I0
(dp4271
g3495
g2616
sssI257
(dp4272
I0
(dp4273
g3495
g2619
sssI12
g3577
sI216
g4259
sI254
(dp4274
I0
(dp4275
g3495
g2610
sssI255
(dp4276
I0
(dp4277
g3495
g2613
ssssI218
(dp4278
I216
g4261
sI224
(dp4279
I0
(dp4280
g3495
g2636
sssI226
(dp4281
I0
(dp4282
g3495
g2639
sssI228
(dp4283
I0
(dp4284
g3495
g2630
sssI222
(dp4285
I0
(dp4286
g3495
g2633
ssssI219
(dp4287
I216
g4263
sI224
(dp4288
I0
(dp4289
g3495
g2656
sssI226
(dp4290
I0
(dp4291
g3495
g2659
sssI228
(dp4292
I0
(dp4293
g3495
g2650
sssI222
(dp4294
I0
(dp4295
g3495
g2653
ssssI220
(dp4296
I216
g4265
sI225
(dp4297
I0
(dp4298
g3495
g2679
sssI227
(dp4299
I0
(dp4300
g3495
g2670
sssI229
(dp4301
I0
(dp4302
g3495
g2673
sssI223
(dp4303
I0
(dp4304
g3495
g2676
ssssI221
(dp4305
I216
g4267
sI225
(dp4306
I0
(dp4307
g3495
g2699
sssI227
(dp4308
I0
(dp4309
g3495
g2690
sssI229
(dp4310
I0
(dp4311
g3495
g2693
sssI223
(dp4312
I0
(dp4313
g3495
g2696
ssssI222
(dp4314
I218
g4285
sI219
g4294
sI230
(dp4315
I0
(dp4316
g3495
g2710
sssI231
(dp4317
I0
(dp4318
g3495
g2713
ssssI223
(dp4319
I220
g4303
sI221
g4312
sI230
(dp4320
I0
(dp4321
g3495
g2724
sssI231
(dp4322
I0
(dp4323
g3495
g2727
ssssI224
(dp4324
I232
(dp4325
I0
(dp4326
g3495
g2738
sssI233
(dp4327
I0
(dp4328
g3495
g2741
sssI218
g4279
sI219
g4288
ssI225
(dp4329
I232
(dp4330
I0
(dp4331
g3495
g2752
sssI233
(dp4332
I0
(dp4333
g3495
g2755
sssI220
g4297
sI221
g4306
ssI226
(dp4334
I218
g4281
sI219
g4290
sI234
(dp4335
I0
(dp4336
g3495
g2769
sssI235
(dp4337
I0
(dp4338
g3495
g2766
ssssI227
(dp4339
I234
(dp4340
I0
(dp4341
g3495
g2783
sssI235
(dp4342
I0
(dp4343
g3495
g2780
sssI220
g4299
sI221
g4308
ssI228
(dp4344
I218
g4283
sI219
g4292
sI236
(dp4345
I0
(dp4346
g3495
g2794
sssI237
(dp4347
I0
(dp4348
g3495
g2797
ssssI229
(dp4349
I236
(dp4350
I0
(dp4351
g3495
g2811
sssI220
g4301
sI221
g4310
sI237
(dp4352
I0
(dp4353
g3495
g2808
ssssI230
(dp4354
I239
(dp4355
I0
(dp4356
g3495
g2822
sssI238
(dp4357
I0
(dp4358
g3495
g2825
sssI222
g4315
sI223
g4320
ssI231
(dp4359
I240
(dp4360
I0
(dp4361
g3495
g2836
sssI241
(dp4362
I0
(dp4363
g3495
g2839
sssI222
g4317
sI223
g4322
ssI232
(dp4364
I224
g4325
sI225
g4330
sI242
(dp4365
I0
(dp4366
g3495
g2853
sssI243
(dp4367
I0
(dp4368
g3495
g2850
ssssI233
(dp4369
I224
g4327
sI225
g4332
sI244
(dp4370
I0
(dp4371
g3495
g2864
sssI245
(dp4372
I0
(dp4373
g3495
g2867
ssssI234
(dp4374
I226
g4335
sI227
g4340
sI246
(dp4375
I0
(dp4376
g3495
g2878
sssI247
(dp4377
I0
(dp4378
g3495
g2881
ssssI235
(dp4379
I248
(dp4380
I0
(dp4381
g3495
g2892
sssI249
(dp4382
I0
(dp4383
g3495
g2895
sssI226
g4337
sI227
g4342
ssI236
(dp4384
I250
(dp4385
I0
(dp4386
g3495
g2909
sssI251
(dp4387
I0
(dp4388
g3495
g2906
sssI228
g4345
sI229
g4350
ssI237
(dp4389
I252
(dp4390
I0
(dp4391
g3495
g2923
sssI228
g4347
sI229
g4352
sI253
(dp4392
I0
(dp4393
g3495
g2920
ssssI238
(dp4394
I230
g4357
ssI239
(dp4395
I230
g4355
ssI240
(dp4396
I231
g4360
ssI241
(dp4397
I231
g4362
ssI242
(dp4398
I232
g4365
ssI243
(dp4399
I232
g4367
ssI244
(dp4400
I233
g4370
ssI245
(dp4401
I233
g4372
ssI246
(dp4402
I234
g4375
ssI247
(dp4403
I234
g4377
ssI248
(dp4404
I235
g4380
ssI249
(dp4405
I235
g4382
ssI250
(dp4406
I236
g4385
ssI251
(dp4407
I236
g4387
ssI252
(dp4408
I237
g4390
ssI253
(dp4409
I237
g4392
ssI254
(dp4410
I264
(dp4411
I0
(dp4412
g3495
g3068
sssI217
g4274
sI258
(dp4413
I0
(dp4414
g3495
g3071
sssI260
(dp4415
I0
(dp4416
g3495
g3062
sssI262
(dp4417
I0
(dp4418
g3495
g3065
ssssI255
(dp4419
I264
(dp4420
I0
(dp4421
g3495
g3088
sssI217
g4276
sI258
(dp4422
I0
(dp4423
g3495
g3091
sssI260
(dp4424
I0
(dp4425
g3495
g3082
sssI262
(dp4426
I0
(dp4427
g3495
g3085
ssssI256
(dp4428
I217
g4270
sI259
(dp4429
I0
(dp4430
g3495
g3102
sssI265
(dp4431
I0
(dp4432
g3495
g3111
sssI261
(dp4433
I0
(dp4434
g3495
g3105
sssI263
(dp4435
I0
(dp4436
g3495
g3108
ssssI257
(dp4437
I217
g4272
sI259
(dp4438
I0
(dp4439
g3495
g3122
sssI265
(dp4440
I0
(dp4441
g3495
g3131
sssI261
(dp4442
I0
(dp4443
g3495
g3125
sssI263
(dp4444
I0
(dp4445
g3495
g3128
ssssI258
(dp4446
I266
(dp4447
I0
(dp4448
g3495
g3145
sssI267
(dp4449
I0
(dp4450
g3495
g3142
sssI254
g4413
sI255
g4422
ssI259
(dp4451
I256
g4429
sI257
g4438
sI266
(dp4452
I0
(dp4453
g3495
g3159
sssI267
(dp4454
I0
(dp4455
g3495
g3156
ssssI260
(dp4456
I268
(dp4457
I0
(dp4458
g3495
g3170
sssI269
(dp4459
I0
(dp4460
g3495
g3173
sssI254
g4415
sI255
g4424
ssI261
(dp4461
I256
g4433
sI257
g4442
sI268
(dp4462
I0
(dp4463
g3495
g3184
sssI269
(dp4464
I0
(dp4465
g3495
g3187
ssssI262
(dp4466
I271
(dp4467
I0
(dp4468
g3495
g3201
sssI270
(dp4469
I0
(dp4470
g3495
g3198
sssI254
g4417
sI255
g4426
ssI263
(dp4471
I256
g4435
sI257
g4444
sI270
(dp4472
I0
(dp4473
g3495
g3212
sssI271
(dp4474
I0
(dp4475
g3495
g3215
ssssI264
(dp4476
I272
(dp4477
I0
(dp4478
g3495
g3226
sssI273
(dp4479
I0
(dp4480
g3495
g3229
sssI254
g4411
sI255
g4420
ssI265
(dp4481
I256
g4431
sI257
g4440
sI272
(dp4482
I0
(dp4483
g3495
g3243
sssI273
(dp4484
I0
(dp4485
g3495
g3240
ssssI266
(dp4486
I275
(dp4487
I0
(dp4488
g3495
g3254
sssI258
g4447
sI259
g4452
sI274
(dp4489
I0
(dp4490
g3495
g3257
ssssI267
(dp4491
I258
g4449
sI259
g4454
sI276
(dp4492
I0
(dp4493
g3495
g3268
sssI277
(dp4494
I0
(dp4495
g3495
g3271
ssssI268
(dp4496
I260
g4457
sI261
g4462
sI278
(dp4497
I0
(dp4498
g3495
g3282
sssI279
(dp4499
I0
(dp4500
g3495
g3285
ssssI269
(dp4501
I280
(dp4502
I0
(dp4503
g3495
g3296
sssI281
(dp4504
I0
(dp4505
g3495
g3299
sssI260
g4459
sI261
g4464
ssI270
(dp4506
I282
(dp4507
I0
(dp4508
g3495
g3313
sssI283
(dp4509
I0
(dp4510
g3495
g3310
sssI262
g4469
sI263
g4472
ssI271
(dp4511
I284
(dp4512
I0
(dp4513
g3495
g3324
sssI285
(dp4514
I0
(dp4515
g3495
g3327
sssI262
g4467
sI263
g4474
ssI272
(dp4516
I264
g4477
sI265
g4482
sI286
(dp4517
I0
(dp4518
g3495
g3338
sssI287
(dp4519
I0
(dp4520
g3495
g3341
ssssI273
(dp4521
I264
g4479
sI265
g4484
sI288
(dp4522
I0
(dp4523
g3495
g3355
sssI289
(dp4524
I0
(dp4525
g3495
g3352
ssssI274
(dp4526
I266
g4489
ssI275
(dp4527
I266
g4487
ssI276
(dp4528
I267
g4492
ssI277
(dp4529
I267
g4494
ssI278
(dp4530
I268
g4497
ssI279
(dp4531
I268
g4499
ssI280
(dp4532
I269
g4502
ssI281
(dp4533
I269
g4504
ssI282
(dp4534
I270
g4507
ssI283
(dp4535
I270
g4509
ssI284
(dp4536
I271
g4512
ssI285
(dp4537
I271
g4514
ssI286
(dp4538
I272
g4517
ssI287
(dp4539
I272
g4519
ssI288
(dp4540
I273
g4522
ssI289
(dp4541
I273
g4524
sssS'graph'
p4542
(dp4543
sS'adjlist_dict_factory'
p4544
g3487
sS'adj'
p4545
g3491
sbsb.