ccopy_reg
_reconstructor
p0
(cnetwork
Network
p1
c__builtin__
object
p2
Ntp3
Rp4
(dp5
S'meta'
p6
S'Abilene.graphml'
p7
sS'ID_map'
p8
(dp9
I0
I1
sI1
I2
sI2
I3
sI3
I4
sI4
I5
sI5
I6
sI6
I7
sI7
I8
sI8
I9
sI9
I10
sI10
I11
sI11
I12
sI12
I13
sI13
I14
sI14
I15
sI15
I16
sI16
I17
sI17
I18
sI18
I19
sI19
I20
sI20
I21
sI21
I22
sI22
I23
sI23
I24
sI24
I25
sI25
I26
sI26
I27
sI27
I28
sI28
I29
sI29
I30
sI30
I31
sI31
I32
sI32
I33
sI33
I34
sI34
I35
sI35
I36
sI36
I37
sI38
I38
sI39
I39
sI40
I40
sI42
I41
sI43
I42
sI44
I43
sI45
I44
sI46
I45
sI47
I46
sI48
I47
sI49
I48
sI50
I49
sI51
I50
sI52
I51
sI53
I52
sI54
I53
sI55
I54
sI56
I55
sI57
I56
sI58
I57
sI59
I58
sI60
I59
sI61
I60
sI62
I61
sI63
I62
sI64
I63
sI65
I64
sI66
I65
sI67
I66
sI68
I67
sI69
I68
sI70
I69
sI71
I70
sI72
I71
sI73
I72
sI74
I73
sI75
I74
sI76
I75
sI77
I76
sI78
I77
sI79
I78
sI80
I79
sI81
I80
sI82
I81
sI83
I82
sI84
I83
sI85
I84
sI86
I85
sI87
I86
sI88
I87
sI89
I88
sI90
I89
sI91
I90
sI92
I91
sI93
I92
sI94
I93
sI95
I94
sI96
I95
sI97
I96
sI98
I97
sI99
I98
sI100
I99
sI101
I100
sI102
I101
sI103
I102
sI104
I103
sI105
I104
sI106
I105
sI107
I106
sI108
I107
sI109
I108
sI110
I109
sI111
I110
sI112
I111
sI113
I112
sI114
I113
sI115
I114
sI116
I115
sI117
I116
sI118
I117
sI119
I118
sI120
I119
sI121
I120
sI122
I121
sI123
I122
sI124
I123
sI125
I124
sI126
I125
sI127
I126
sI128
I127
sI129
I128
sI130
I129
sI131
I130
sI132
I131
sI133
I132
sI134
I133
sI135
I134
sI136
I135
sI137
I136
sI138
I137
sI139
I138
sI140
I139
sI141
I140
sI142
I141
sI143
I142
sI144
I143
sI145
I144
sI146
I145
sI147
I146
sI148
I147
sI149
I148
sI150
I149
sI151
I150
sI152
I151
sI153
I152
sI154
I153
sI155
I154
sI156
I155
sI157
I156
sI158
I157
sI159
I158
sI160
I159
sI161
I160
sI162
I161
sI163
I162
sI164
I163
sI165
I164
sI166
I165
sI167
I166
sI168
I167
sI169
I168
sI170
I169
sI171
I170
sI172
I171
sI173
I172
sI174
I173
sI175
I174
sI176
I175
sI177
I176
sI178
I177
sI179
I178
sI180
I179
sI181
I180
sI182
I181
sI183
I182
sI184
I183
sI185
I184
sI186
I185
sI187
I186
sI188
I187
sI189
I188
sI190
I189
sI191
I190
sI192
I191
sI193
I192
sI194
I193
sI195
I194
sI196
I195
sI197
I196
sI198
I197
sI199
I198
sI200
I199
sI202
I200
sI203
I201
sI204
I202
sI207
I203
ssS'topology'
p10
g0
(cnetworkx.classes.multigraph
MultiGraph
p11
g2
Ntp12
Rp13
(dp14
S'node'
p15
(dp16
I1
(dp17
g15
g0
(covsswitch
OVSSwitch
p18
g2
Ntp19
Rp20
(dp21
S'tables'
p22
(lp23
sS'name'
p24
S'ovs-sw0'
p25
sS'ip'
p26
NsS'ID'
p27
I0
sS'mac'
p28
NsS'msk'
p29
NsS'dpid'
p30
NsS'ports'
p31
(dp32
I0
g0
(clink
Link
p33
g2
Ntp34
Rp35
(dp36
S'latency'
p37
I70
sS'a_port'
p38
I0
sS'b_port'
p39
I0
sS'b_node'
p40
I1
sS'throughput'
p41
I10
sS'a_node'
p42
I0
sbsI1
g0
(g33
g2
Ntp43
Rp44
(dp45
g37
I70
sg38
I1
sg39
I0
sg40
I2
sg41
I10
sg42
I0
sbsI2
g0
(g33
g2
Ntp46
Rp47
(dp48
g37
I10
sg38
I2
sg39
I0
sg40
I11
sg41
I10
sg42
I0
sbsI3
g0
(g33
g2
Ntp49
Rp50
(dp51
g37
I10
sg38
I3
sg39
I0
sg40
I12
sg41
I10
sg42
I0
sbssS'opts'
p52
(dp53
sbssI2
(dp54
g15
g0
(g18
g2
Ntp55
Rp56
(dp57
g22
(lp58
sg24
S'ovs-sw1'
p59
sg26
Nsg27
I1
sg28
Nsg29
Nsg30
Nsg31
(dp60
I0
g35
sI1
g0
(g33
g2
Ntp61
Rp62
(dp63
g37
I70
sg38
I1
sg39
I0
sg40
I10
sg41
I10
sg42
I1
sbsI2
g0
(g33
g2
Ntp64
Rp65
(dp66
g37
I10
sg38
I2
sg39
I0
sg40
I27
sg41
I10
sg42
I1
sbsI3
g0
(g33
g2
Ntp67
Rp68
(dp69
g37
I10
sg38
I3
sg39
I0
sg40
I28
sg41
I10
sg42
I1
sbssg52
(dp70
sbssI3
(dp71
g15
g0
(g18
g2
Ntp72
Rp73
(dp74
g22
(lp75
sg24
S'ovs-sw2'
p76
sg26
Nsg27
I2
sg28
Nsg29
Nsg30
Nsg31
(dp77
I0
g44
sI1
g0
(g33
g2
Ntp78
Rp79
(dp80
g37
I70
sg38
I1
sg39
I0
sg40
I9
sg41
I10
sg42
I2
sbsI2
g0
(g33
g2
Ntp81
Rp82
(dp83
g37
I10
sg38
I2
sg39
I0
sg40
I43
sg41
I10
sg42
I2
sbsI3
g0
(g33
g2
Ntp84
Rp85
(dp86
g37
I10
sg38
I3
sg39
I0
sg40
I44
sg41
I10
sg42
I2
sbssg52
(dp87
sbssI4
(dp88
g15
g0
(g18
g2
Ntp89
Rp90
(dp91
g22
(lp92
sg24
S'ovs-sw3'
p93
sg26
Nsg27
I3
sg28
Nsg29
Nsg30
Nsg31
(dp94
I0
g0
(g33
g2
Ntp95
Rp96
(dp97
g37
I10
sg38
I0
sg39
I0
sg40
I54
sg41
I10
sg42
I3
sbsI1
g0
(g33
g2
Ntp98
Rp99
(dp100
g37
I70
sg38
I1
sg39
I0
sg40
I4
sg41
I10
sg42
I3
sbsI2
g0
(g33
g2
Ntp101
Rp102
(dp103
g37
I10
sg38
I2
sg39
I0
sg40
I53
sg41
I10
sg42
I3
sbsI3
g0
(g33
g2
Ntp104
Rp105
(dp106
g37
I70
sg38
I3
sg39
I0
sg40
I6
sg41
I10
sg42
I3
sbssg52
(dp107
sbssI5
(dp108
g15
g0
(g18
g2
Ntp109
Rp110
(dp111
g22
(lp112
sg24
S'ovs-sw4'
p113
sg26
Nsg27
I4
sg28
Nsg29
Nsg30
Nsg31
(dp114
I0
g99
sI1
g0
(g33
g2
Ntp115
Rp116
(dp117
g37
I10
sg38
I1
sg39
I0
sg40
I62
sg41
I10
sg42
I4
sbsI2
g0
(g33
g2
Ntp118
Rp119
(dp120
g37
I70
sg38
I2
sg39
I0
sg40
I5
sg41
I10
sg42
I4
sbsI3
g0
(g33
g2
Ntp121
Rp122
(dp123
g37
I70
sg38
I3
sg39
I1
sg40
I6
sg41
I10
sg42
I4
sbsI4
g0
(g33
g2
Ntp124
Rp125
(dp126
g37
I10
sg38
I4
sg39
I0
sg40
I61
sg41
I10
sg42
I4
sbssg52
(dp127
sbssI6
(dp128
g15
g0
(g18
g2
Ntp129
Rp130
(dp131
g22
(lp132
sg24
S'ovs-sw5'
p133
sg26
Nsg27
I5
sg28
Nsg29
Nsg30
Nsg31
(dp134
I0
g119
sI1
g0
(g33
g2
Ntp135
Rp136
(dp137
g37
I70
sg38
I1
sg39
I0
sg40
I8
sg41
I10
sg42
I5
sbsI2
g0
(g33
g2
Ntp138
Rp139
(dp140
g37
I10
sg38
I2
sg39
I0
sg40
I68
sg41
I10
sg42
I5
sbsI3
g0
(g33
g2
Ntp141
Rp142
(dp143
g37
I10
sg38
I3
sg39
I0
sg40
I69
sg41
I10
sg42
I5
sbssg52
(dp144
sbssI7
(dp145
g15
g0
(g18
g2
Ntp146
Rp147
(dp148
g22
(lp149
sg24
S'ovs-sw6'
p150
sg26
Nsg27
I6
sg28
Nsg29
Nsg30
Nsg31
(dp151
I0
g105
sI1
g122
sI2
g0
(g33
g2
Ntp152
Rp153
(dp154
g37
I10
sg38
I2
sg39
I0
sg40
I143
sg41
I10
sg42
I6
sbsI3
g0
(g33
g2
Ntp155
Rp156
(dp157
g37
I10
sg38
I3
sg39
I0
sg40
I142
sg41
I10
sg42
I6
sbsI4
g0
(g33
g2
Ntp158
Rp159
(dp160
g37
I70
sg38
I4
sg39
I0
sg40
I7
sg41
I10
sg42
I6
sbssg52
(dp161
sbssI8
(dp162
g15
g0
(g18
g2
Ntp163
Rp164
(dp165
g22
(lp166
sg24
S'ovs-sw7'
p167
sg26
Nsg27
I7
sg28
Nsg29
Nsg30
Nsg31
(dp168
I0
g159
sI1
g0
(g33
g2
Ntp169
Rp170
(dp171
g37
I70
sg38
I1
sg39
I1
sg40
I8
sg41
I10
sg42
I7
sbsI2
g0
(g33
g2
Ntp172
Rp173
(dp174
g37
I70
sg38
I2
sg39
I1
sg40
I10
sg41
I10
sg42
I7
sbsI3
g0
(g33
g2
Ntp175
Rp176
(dp177
g37
I10
sg38
I3
sg39
I0
sg40
I156
sg41
I10
sg42
I7
sbsI4
g0
(g33
g2
Ntp178
Rp179
(dp180
g37
I10
sg38
I4
sg39
I0
sg40
I157
sg41
I10
sg42
I7
sbssg52
(dp181
sbssI9
(dp182
g15
g0
(g18
g2
Ntp183
Rp184
(dp185
g22
(lp186
sg24
S'ovs-sw8'
p187
sg26
Nsg27
I8
sg28
Nsg29
Nsg30
Nsg31
(dp188
I0
g136
sI1
g170
sI2
g0
(g33
g2
Ntp189
Rp190
(dp191
g37
I70
sg38
I2
sg39
I1
sg40
I9
sg41
I10
sg42
I8
sbsI3
g0
(g33
g2
Ntp192
Rp193
(dp194
g37
I10
sg38
I3
sg39
I0
sg40
I172
sg41
I10
sg42
I8
sbsI4
g0
(g33
g2
Ntp195
Rp196
(dp197
g37
I10
sg38
I4
sg39
I0
sg40
I173
sg41
I10
sg42
I8
sbssg52
(dp198
sbssI10
(dp199
g15
g0
(g18
g2
Ntp200
Rp201
(dp202
g22
(lp203
sg24
S'ovs-sw9'
p204
sg26
Nsg27
I9
sg28
Nsg29
Nsg30
Nsg31
(dp205
I0
g79
sI1
g190
sI2
g0
(g33
g2
Ntp206
Rp207
(dp208
g37
I70
sg38
I2
sg39
I2
sg40
I10
sg41
I10
sg42
I9
sbsI3
g0
(g33
g2
Ntp209
Rp210
(dp211
g37
I10
sg38
I3
sg39
I0
sg40
I182
sg41
I10
sg42
I9
sbsI4
g0
(g33
g2
Ntp212
Rp213
(dp214
g37
I10
sg38
I4
sg39
I0
sg40
I183
sg41
I10
sg42
I9
sbssg52
(dp215
sbssI11
(dp216
g15
g0
(g18
g2
Ntp217
Rp218
(dp219
g22
(lp220
sg24
S'ovs-sw10'
p221
sg26
Nsg27
I10
sg28
Nsg29
Nsg30
Nsg31
(dp222
I0
g62
sI1
g173
sI2
g207
sI3
g0
(g33
g2
Ntp223
Rp224
(dp225
g37
I10
sg38
I3
sg39
I0
sg40
I199
sg41
I10
sg42
I10
sbsI4
g0
(g33
g2
Ntp226
Rp227
(dp228
g37
I10
sg38
I4
sg39
I0
sg40
I198
sg41
I10
sg42
I10
sbssg52
(dp229
sbssI12
(dp230
g15
g0
(g18
g2
Ntp231
Rp232
(dp233
g22
(lp234
sg24
S'ovs-sw11'
p235
sg26
Nsg27
I11
sg28
Nsg29
Nsg30
Nsg31
(dp236
I0
g47
sI1
g0
(g33
g2
Ntp237
Rp238
(dp239
g37
I10
sg38
I1
sg39
I0
sg40
I19
sg41
I10
sg42
I11
sbsI2
g0
(g33
g2
Ntp240
Rp241
(dp242
g37
I10
sg38
I2
sg39
I1
sg40
I12
sg41
I10
sg42
I11
sbssg52
(dp243
sbssI13
(dp244
g15
g0
(g18
g2
Ntp245
Rp246
(dp247
g22
(lp248
sg24
S'ovs-sw12'
p249
sg26
Nsg27
I12
sg28
Nsg29
Nsg30
Nsg31
(dp250
I0
g50
sI1
g241
sI2
g0
(g33
g2
Ntp251
Rp252
(dp253
g37
I10
sg38
I2
sg39
I0
sg40
I26
sg41
I10
sg42
I12
sbssg52
(dp254
sbssI14
(dp255
g15
g0
(g18
g2
Ntp256
Rp257
(dp258
g22
(lp259
sg24
S'ovs-sw13'
p260
sg26
Nsg27
I13
sg28
Nsg29
Nsg30
Nsg31
(dp261
I0
g0
(g33
g2
Ntp262
Rp263
(dp264
g37
I10
sg38
I0
sg39
I1
sg40
I19
sg41
I10
sg42
I13
sbssg52
(dp265
sbssI15
(dp266
g15
g0
(g18
g2
Ntp267
Rp268
(dp269
g22
(lp270
sg24
S'ovs-sw14'
p271
sg26
Nsg27
I14
sg28
Nsg29
Nsg30
Nsg31
(dp272
I0
g0
(g33
g2
Ntp273
Rp274
(dp275
g37
I10
sg38
I0
sg39
I2
sg40
I19
sg41
I10
sg42
I14
sbssg52
(dp276
sbssI16
(dp277
g15
g0
(g18
g2
Ntp278
Rp279
(dp280
g22
(lp281
sg24
S'ovs-sw15'
p282
sg26
Nsg27
I15
sg28
Nsg29
Nsg30
Nsg31
(dp283
I0
g0
(g33
g2
Ntp284
Rp285
(dp286
g37
I10
sg38
I0
sg39
I3
sg40
I19
sg41
I10
sg42
I15
sbssg52
(dp287
sbssI17
(dp288
g15
g0
(g18
g2
Ntp289
Rp290
(dp291
g22
(lp292
sg24
S'ovs-sw16'
p293
sg26
Nsg27
I16
sg28
Nsg29
Nsg30
Nsg31
(dp294
I0
g0
(g33
g2
Ntp295
Rp296
(dp297
g37
I10
sg38
I0
sg39
I4
sg40
I19
sg41
I10
sg42
I16
sbssg52
(dp298
sbssI18
(dp299
g15
g0
(g18
g2
Ntp300
Rp301
(dp302
g22
(lp303
sg24
S'ovs-sw17'
p304
sg26
Nsg27
I17
sg28
Nsg29
Nsg30
Nsg31
(dp305
I0
g0
(g33
g2
Ntp306
Rp307
(dp308
g37
I10
sg38
I0
sg39
I5
sg40
I19
sg41
I10
sg42
I17
sbssg52
(dp309
sbssI19
(dp310
g15
g0
(g18
g2
Ntp311
Rp312
(dp313
g22
(lp314
sg24
S'ovs-sw18'
p315
sg26
Nsg27
I18
sg28
Nsg29
Nsg30
Nsg31
(dp316
I0
g0
(g33
g2
Ntp317
Rp318
(dp319
g37
I10
sg38
I0
sg39
I6
sg40
I19
sg41
I10
sg42
I18
sbssg52
(dp320
sbssI20
(dp321
g15
g0
(g18
g2
Ntp322
Rp323
(dp324
g22
(lp325
sg24
S'ovs-sw19'
p326
sg26
Nsg27
I19
sg28
Nsg29
Nsg30
Nsg31
(dp327
I0
g238
sI1
g263
sI2
g274
sI3
g285
sI4
g296
sI5
g307
sI6
g318
ssg52
(dp328
sbssI21
(dp329
g15
g0
(g18
g2
Ntp330
Rp331
(dp332
g22
(lp333
sg24
S'ovs-sw20'
p334
sg26
Nsg27
I20
sg28
Nsg29
Nsg30
Nsg31
(dp335
I0
g0
(g33
g2
Ntp336
Rp337
(dp338
g37
I10
sg38
I0
sg39
I1
sg40
I26
sg41
I10
sg42
I20
sbssg52
(dp339
sbssI22
(dp340
g15
g0
(g18
g2
Ntp341
Rp342
(dp343
g22
(lp344
sg24
S'ovs-sw21'
p345
sg26
Nsg27
I21
sg28
Nsg29
Nsg30
Nsg31
(dp346
I0
g0
(g33
g2
Ntp347
Rp348
(dp349
g37
I10
sg38
I0
sg39
I2
sg40
I26
sg41
I10
sg42
I21
sbssg52
(dp350
sbssI23
(dp351
g15
g0
(g18
g2
Ntp352
Rp353
(dp354
g22
(lp355
sg24
S'ovs-sw22'
p356
sg26
Nsg27
I22
sg28
Nsg29
Nsg30
Nsg31
(dp357
I0
g0
(g33
g2
Ntp358
Rp359
(dp360
g37
I10
sg38
I0
sg39
I3
sg40
I26
sg41
I10
sg42
I22
sbssg52
(dp361
sbssI24
(dp362
g15
g0
(g18
g2
Ntp363
Rp364
(dp365
g22
(lp366
sg24
S'ovs-sw23'
p367
sg26
Nsg27
I23
sg28
Nsg29
Nsg30
Nsg31
(dp368
I0
g0
(g33
g2
Ntp369
Rp370
(dp371
g37
I10
sg38
I0
sg39
I4
sg40
I26
sg41
I10
sg42
I23
sbssg52
(dp372
sbssI25
(dp373
g15
g0
(g18
g2
Ntp374
Rp375
(dp376
g22
(lp377
sg24
S'ovs-sw24'
p378
sg26
Nsg27
I24
sg28
Nsg29
Nsg30
Nsg31
(dp379
I0
g0
(g33
g2
Ntp380
Rp381
(dp382
g37
I10
sg38
I0
sg39
I5
sg40
I26
sg41
I10
sg42
I24
sbssg52
(dp383
sbssI26
(dp384
g15
g0
(g18
g2
Ntp385
Rp386
(dp387
g22
(lp388
sg24
S'ovs-sw25'
p389
sg26
Nsg27
I25
sg28
Nsg29
Nsg30
Nsg31
(dp390
I0
g0
(g33
g2
Ntp391
Rp392
(dp393
g37
I10
sg38
I0
sg39
I6
sg40
I26
sg41
I10
sg42
I25
sbssg52
(dp394
sbssI27
(dp395
g15
g0
(g18
g2
Ntp396
Rp397
(dp398
g22
(lp399
sg24
S'ovs-sw26'
p400
sg26
Nsg27
I26
sg28
Nsg29
Nsg30
Nsg31
(dp401
I0
g252
sI1
g337
sI2
g348
sI3
g359
sI4
g370
sI5
g381
sI6
g392
ssg52
(dp402
sbssI28
(dp403
g15
g0
(g18
g2
Ntp404
Rp405
(dp406
g22
(lp407
sg24
S'ovs-sw27'
p408
sg26
Nsg27
I27
sg28
Nsg29
Nsg30
Nsg31
(dp409
I0
g65
sI1
g0
(g33
g2
Ntp410
Rp411
(dp412
g37
I10
sg38
I1
sg39
I0
sg40
I35
sg41
I1
sg42
I27
sbsI2
g0
(g33
g2
Ntp413
Rp414
(dp415
g37
I10
sg38
I2
sg39
I1
sg40
I28
sg41
I1
sg42
I27
sbssg52
(dp416
sbssI29
(dp417
g15
g0
(g18
g2
Ntp418
Rp419
(dp420
g22
(lp421
sg24
S'ovs-sw28'
p422
sg26
Nsg27
I28
sg28
Nsg29
Nsg30
Nsg31
(dp423
I0
g68
sI1
g414
sI2
g0
(g33
g2
Ntp424
Rp425
(dp426
g37
I10
sg38
I2
sg39
I0
sg40
I42
sg41
I1
sg42
I28
sbssg52
(dp427
sbssI30
(dp428
g15
g0
(g18
g2
Ntp429
Rp430
(dp431
g22
(lp432
sg24
S'ovs-sw29'
p433
sg26
Nsg27
I29
sg28
Nsg29
Nsg30
Nsg31
(dp434
I0
g0
(g33
g2
Ntp435
Rp436
(dp437
g37
I10
sg38
I0
sg39
I0
sg40
I33
sg41
I1
sg42
I29
sbssg52
(dp438
sbssI31
(dp439
g15
g0
(g18
g2
Ntp440
Rp441
(dp442
g22
(lp443
sg24
S'ovs-sw30'
p444
sg26
Nsg27
I30
sg28
Nsg29
Nsg30
Nsg31
(dp445
I0
g0
(g33
g2
Ntp446
Rp447
(dp448
g37
I10
sg38
I0
sg39
I0
sg40
I34
sg41
I1
sg42
I30
sbsI1
g0
(g33
g2
Ntp449
Rp450
(dp451
g37
I10
sg38
I1
sg39
I1
sg40
I35
sg41
I1
sg42
I30
sbssg52
(dp452
sbssI32
(dp453
g15
g0
(g18
g2
Ntp454
Rp455
(dp456
g22
(lp457
sg24
S'ovs-sw31'
p458
sg26
Nsg27
I31
sg28
Nsg29
Nsg30
Nsg31
(dp459
I0
g0
(g33
g2
Ntp460
Rp461
(dp462
g37
I10
sg38
I0
sg39
I1
sg40
I34
sg41
I1
sg42
I31
sbssg52
(dp463
sbssI33
(dp464
g15
g0
(g18
g2
Ntp465
Rp466
(dp467
g22
(lp468
sg24
S'ovs-sw32'
p469
sg26
Nsg27
I32
sg28
Nsg29
Nsg30
Nsg31
(dp470
I0
g0
(g33
g2
Ntp471
Rp472
(dp473
g37
I10
sg38
I0
sg39
I2
sg40
I35
sg41
I1
sg42
I32
sbssg52
(dp474
sbssI34
(dp475
g15
g0
(g18
g2
Ntp476
Rp477
(dp478
g22
(lp479
sg24
S'ovs-sw33'
p480
sg26
Nsg27
I33
sg28
Nsg29
Nsg30
Nsg31
(dp481
I0
g436
sI1
g0
(g33
g2
Ntp482
Rp483
(dp484
g37
I10
sg38
I1
sg39
I3
sg40
I35
sg41
I1
sg42
I33
sbssg52
(dp485
sbssI35
(dp486
g15
g0
(g18
g2
Ntp487
Rp488
(dp489
g22
(lp490
sg24
S'ovs-sw34'
p491
sg26
Nsg27
I34
sg28
Nsg29
Nsg30
Nsg31
(dp492
I0
g447
sI1
g461
ssg52
(dp493
sbssI36
(dp494
g15
g0
(g18
g2
Ntp495
Rp496
(dp497
g22
(lp498
sg24
S'ovs-sw35'
p499
sg26
Nsg27
I35
sg28
Nsg29
Nsg30
Nsg31
(dp500
I0
g411
sI1
g450
sI2
g472
sI3
g483
ssg52
(dp501
sbssI37
(dp502
g15
g0
(g18
g2
Ntp503
Rp504
(dp505
g22
(lp506
sg24
S'ovs-sw36'
p507
sg26
Nsg27
I36
sg28
Nsg29
Nsg30
Nsg31
(dp508
I0
g0
(g33
g2
Ntp509
Rp510
(dp511
g37
I10
sg38
I0
sg39
I1
sg40
I42
sg41
I1
sg42
I36
sbssg52
(dp512
sbssI38
(dp513
g15
g0
(g18
g2
Ntp514
Rp515
(dp516
g22
(lp517
sg24
S'ovs-sw38'
p518
sg26
Nsg27
I38
sg28
Nsg29
Nsg30
Nsg31
(dp519
I0
g0
(g33
g2
Ntp520
Rp521
(dp522
g37
I10
sg38
I0
sg39
I2
sg40
I42
sg41
I1
sg42
I38
sbssg52
(dp523
sbssI39
(dp524
g15
g0
(g18
g2
Ntp525
Rp526
(dp527
g22
(lp528
sg24
S'ovs-sw39'
p529
sg26
Nsg27
I39
sg28
Nsg29
Nsg30
Nsg31
(dp530
I0
g0
(g33
g2
Ntp531
Rp532
(dp533
g37
I10
sg38
I0
sg39
I3
sg40
I42
sg41
I1
sg42
I39
sbssg52
(dp534
sbssI40
(dp535
g15
g0
(g18
g2
Ntp536
Rp537
(dp538
g22
(lp539
sg24
S'ovs-sw40'
p540
sg26
Nsg27
I40
sg28
Nsg29
Nsg30
Nsg31
(dp541
I0
g0
(g33
g2
Ntp542
Rp543
(dp544
g37
I10
sg38
I0
sg39
I4
sg40
I42
sg41
I1
sg42
I40
sbssg52
(dp545
sbssI41
(dp546
g15
g0
(g18
g2
Ntp547
Rp548
(dp549
g22
(lp550
sg24
S'ovs-sw42'
p551
sg26
Nsg27
I42
sg28
Nsg29
Nsg30
Nsg31
(dp552
I0
g425
sI1
g510
sI2
g521
sI3
g532
sI4
g543
ssg52
(dp553
sbssI42
(dp554
g15
g0
(g18
g2
Ntp555
Rp556
(dp557
g22
(lp558
sg24
S'ovs-sw43'
p559
sg26
Nsg27
I43
sg28
Nsg29
Nsg30
Nsg31
(dp560
I0
g82
sI1
g0
(g33
g2
Ntp561
Rp562
(dp563
g37
I10
sg38
I1
sg39
I0
sg40
I48
sg41
I10
sg42
I43
sbsI2
g0
(g33
g2
Ntp564
Rp565
(dp566
g37
I10
sg38
I2
sg39
I1
sg40
I44
sg41
I10
sg42
I43
sbssg52
(dp567
sbssI43
(dp568
g15
g0
(g18
g2
Ntp569
Rp570
(dp571
g22
(lp572
sg24
S'ovs-sw44'
p573
sg26
Nsg27
I44
sg28
Nsg29
Nsg30
Nsg31
(dp574
I0
g85
sI1
g565
sI2
g0
(g33
g2
Ntp575
Rp576
(dp577
g37
I10
sg38
I2
sg39
I0
sg40
I52
sg41
I10
sg42
I44
sbssg52
(dp578
sbssI44
(dp579
g15
g0
(g18
g2
Ntp580
Rp581
(dp582
g22
(lp583
sg24
S'ovs-sw45'
p584
sg26
Nsg27
I45
sg28
Nsg29
Nsg30
Nsg31
(dp585
I0
g0
(g33
g2
Ntp586
Rp587
(dp588
g37
I10
sg38
I0
sg39
I1
sg40
I48
sg41
I10
sg42
I45
sbssg52
(dp589
sbssI45
(dp590
g15
g0
(g18
g2
Ntp591
Rp592
(dp593
g22
(lp594
sg24
S'ovs-sw46'
p595
sg26
Nsg27
I46
sg28
Nsg29
Nsg30
Nsg31
(dp596
I0
g0
(g33
g2
Ntp597
Rp598
(dp599
g37
I10
sg38
I0
sg39
I2
sg40
I48
sg41
I10
sg42
I46
sbssg52
(dp600
sbssI46
(dp601
g15
g0
(g18
g2
Ntp602
Rp603
(dp604
g22
(lp605
sg24
S'ovs-sw47'
p606
sg26
Nsg27
I47
sg28
Nsg29
Nsg30
Nsg31
(dp607
I0
g0
(g33
g2
Ntp608
Rp609
(dp610
g37
I10
sg38
I0
sg39
I3
sg40
I48
sg41
I10
sg42
I47
sbssg52
(dp611
sbssI47
(dp612
g15
g0
(g18
g2
Ntp613
Rp614
(dp615
g22
(lp616
sg24
S'ovs-sw48'
p617
sg26
Nsg27
I48
sg28
Nsg29
Nsg30
Nsg31
(dp618
I0
g562
sI1
g587
sI2
g598
sI3
g609
ssg52
(dp619
sbssI48
(dp620
g15
g0
(g18
g2
Ntp621
Rp622
(dp623
g22
(lp624
sg24
S'ovs-sw49'
p625
sg26
Nsg27
I49
sg28
Nsg29
Nsg30
Nsg31
(dp626
I0
g0
(g33
g2
Ntp627
Rp628
(dp629
g37
I10
sg38
I0
sg39
I1
sg40
I52
sg41
I10
sg42
I49
sbssg52
(dp630
sbssI49
(dp631
g15
g0
(g18
g2
Ntp632
Rp633
(dp634
g22
(lp635
sg24
S'ovs-sw50'
p636
sg26
Nsg27
I50
sg28
Nsg29
Nsg30
Nsg31
(dp637
I0
g0
(g33
g2
Ntp638
Rp639
(dp640
g37
I10
sg38
I0
sg39
I2
sg40
I52
sg41
I10
sg42
I50
sbssg52
(dp641
sbssI50
(dp642
g15
g0
(g18
g2
Ntp643
Rp644
(dp645
g22
(lp646
sg24
S'ovs-sw51'
p647
sg26
Nsg27
I51
sg28
Nsg29
Nsg30
Nsg31
(dp648
I0
g0
(g33
g2
Ntp649
Rp650
(dp651
g37
I10
sg38
I0
sg39
I3
sg40
I52
sg41
I10
sg42
I51
sbssg52
(dp652
sbssI51
(dp653
g15
g0
(g18
g2
Ntp654
Rp655
(dp656
g22
(lp657
sg24
S'ovs-sw52'
p658
sg26
Nsg27
I52
sg28
Nsg29
Nsg30
Nsg31
(dp659
I0
g576
sI1
g628
sI2
g639
sI3
g650
ssg52
(dp660
sbssI52
(dp661
g15
g0
(g18
g2
Ntp662
Rp663
(dp664
g22
(lp665
sg24
S'ovs-sw53'
p666
sg26
Nsg27
I53
sg28
Nsg29
Nsg30
Nsg31
(dp667
I0
g102
sI1
g0
(g33
g2
Ntp668
Rp669
(dp670
g37
I10
sg38
I1
sg39
I0
sg40
I57
sg41
I1
sg42
I53
sbsI2
g0
(g33
g2
Ntp671
Rp672
(dp673
g37
I10
sg38
I2
sg39
I1
sg40
I54
sg41
I1
sg42
I53
sbssg52
(dp674
sbssI53
(dp675
g15
g0
(g18
g2
Ntp676
Rp677
(dp678
g22
(lp679
sg24
S'ovs-sw54'
p680
sg26
Nsg27
I54
sg28
Nsg29
Nsg30
Nsg31
(dp681
I0
g96
sI1
g672
sI2
g0
(g33
g2
Ntp682
Rp683
(dp684
g37
I10
sg38
I2
sg39
I0
sg40
I58
sg41
I1
sg42
I54
sbssg52
(dp685
sbssI54
(dp686
g15
g0
(g18
g2
Ntp687
Rp688
(dp689
g22
(lp690
sg24
S'ovs-sw55'
p691
sg26
Nsg27
I55
sg28
Nsg29
Nsg30
Nsg31
(dp692
I0
g0
(g33
g2
Ntp693
Rp694
(dp695
g37
I10
sg38
I0
sg39
I1
sg40
I57
sg41
I1
sg42
I55
sbssg52
(dp696
sbssI55
(dp697
g15
g0
(g18
g2
Ntp698
Rp699
(dp700
g22
(lp701
sg24
S'ovs-sw56'
p702
sg26
Nsg27
I56
sg28
Nsg29
Nsg30
Nsg31
(dp703
I0
g0
(g33
g2
Ntp704
Rp705
(dp706
g37
I10
sg38
I0
sg39
I2
sg40
I57
sg41
I1
sg42
I56
sbssg52
(dp707
sbssI56
(dp708
g15
g0
(g18
g2
Ntp709
Rp710
(dp711
g22
(lp712
sg24
S'ovs-sw57'
p713
sg26
Nsg27
I57
sg28
Nsg29
Nsg30
Nsg31
(dp714
I0
g669
sI1
g694
sI2
g705
ssg52
(dp715
sbssI57
(dp716
g15
g0
(g18
g2
Ntp717
Rp718
(dp719
g22
(lp720
sg24
S'ovs-sw58'
p721
sg26
Nsg27
I58
sg28
Nsg29
Nsg30
Nsg31
(dp722
I0
g683
sI1
g0
(g33
g2
Ntp723
Rp724
(dp725
g37
I10
sg38
I1
sg39
I0
sg40
I59
sg41
I1
sg42
I58
sbsI2
g0
(g33
g2
Ntp726
Rp727
(dp728
g37
I10
sg38
I2
sg39
I0
sg40
I60
sg41
I1
sg42
I58
sbssg52
(dp729
sbssI58
(dp730
g15
g0
(g18
g2
Ntp731
Rp732
(dp733
g22
(lp734
sg24
S'ovs-sw59'
p735
sg26
Nsg27
I59
sg28
Nsg29
Nsg30
Nsg31
(dp736
I0
g724
ssg52
(dp737
sbssI59
(dp738
g15
g0
(g18
g2
Ntp739
Rp740
(dp741
g22
(lp742
sg24
S'ovs-sw60'
p743
sg26
Nsg27
I60
sg28
Nsg29
Nsg30
Nsg31
(dp744
I0
g727
ssg52
(dp745
sbssI60
(dp746
g15
g0
(g18
g2
Ntp747
Rp748
(dp749
g22
(lp750
sg24
S'ovs-sw61'
p751
sg26
Nsg27
I61
sg28
Nsg29
Nsg30
Nsg31
(dp752
I0
g125
sI1
g0
(g33
g2
Ntp753
Rp754
(dp755
g37
I10
sg38
I1
sg39
I0
sg40
I64
sg41
I1
sg42
I61
sbsI2
g0
(g33
g2
Ntp756
Rp757
(dp758
g37
I10
sg38
I2
sg39
I1
sg40
I62
sg41
I1
sg42
I61
sbssg52
(dp759
sbssI61
(dp760
g15
g0
(g18
g2
Ntp761
Rp762
(dp763
g22
(lp764
sg24
S'ovs-sw62'
p765
sg26
Nsg27
I62
sg28
Nsg29
Nsg30
Nsg31
(dp766
I0
g116
sI1
g757
sI2
g0
(g33
g2
Ntp767
Rp768
(dp769
g37
I10
sg38
I2
sg39
I0
sg40
I66
sg41
I1
sg42
I62
sbssg52
(dp770
sbssI62
(dp771
g15
g0
(g18
g2
Ntp772
Rp773
(dp774
g22
(lp775
sg24
S'ovs-sw63'
p776
sg26
Nsg27
I63
sg28
Nsg29
Nsg30
Nsg31
(dp777
I0
g0
(g33
g2
Ntp778
Rp779
(dp780
g37
I10
sg38
I0
sg39
I1
sg40
I64
sg41
I1
sg42
I63
sbssg52
(dp781
sbssI63
(dp782
g15
g0
(g18
g2
Ntp783
Rp784
(dp785
g22
(lp786
sg24
S'ovs-sw64'
p787
sg26
Nsg27
I64
sg28
Nsg29
Nsg30
Nsg31
(dp788
I0
g754
sI1
g779
sI2
g0
(g33
g2
Ntp789
Rp790
(dp791
g37
I10
sg38
I2
sg39
I0
sg40
I65
sg41
I1
sg42
I64
sbssg52
(dp792
sbssI64
(dp793
g15
g0
(g18
g2
Ntp794
Rp795
(dp796
g22
(lp797
sg24
S'ovs-sw65'
p798
sg26
Nsg27
I65
sg28
Nsg29
Nsg30
Nsg31
(dp799
I0
g790
ssg52
(dp800
sbssI65
(dp801
g15
g0
(g18
g2
Ntp802
Rp803
(dp804
g22
(lp805
sg24
S'ovs-sw66'
p806
sg26
Nsg27
I66
sg28
Nsg29
Nsg30
Nsg31
(dp807
I0
g768
sI1
g0
(g33
g2
Ntp808
Rp809
(dp810
g37
I10
sg38
I1
sg39
I0
sg40
I67
sg41
I1
sg42
I66
sbssg52
(dp811
sbssI66
(dp812
g15
g0
(g18
g2
Ntp813
Rp814
(dp815
g22
(lp816
sg24
S'ovs-sw67'
p817
sg26
Nsg27
I67
sg28
Nsg29
Nsg30
Nsg31
(dp818
I0
g809
ssg52
(dp819
sbssI67
(dp820
g15
g0
(g18
g2
Ntp821
Rp822
(dp823
g22
(lp824
sg24
S'ovs-sw68'
p825
sg26
Nsg27
I68
sg28
Nsg29
Nsg30
Nsg31
(dp826
I0
g139
sI1
g0
(g33
g2
Ntp827
Rp828
(dp829
g37
I10
sg38
I1
sg39
I0
sg40
I70
sg41
I10
sg42
I68
sbsI2
g0
(g33
g2
Ntp830
Rp831
(dp832
g37
I10
sg38
I2
sg39
I0
sg40
I71
sg41
I10
sg42
I68
sbsI3
g0
(g33
g2
Ntp833
Rp834
(dp835
g37
I10
sg38
I3
sg39
I0
sg40
I72
sg41
I10
sg42
I68
sbsI4
g0
(g33
g2
Ntp836
Rp837
(dp838
g37
I10
sg38
I4
sg39
I0
sg40
I73
sg41
I10
sg42
I68
sbsI5
g0
(g33
g2
Ntp839
Rp840
(dp841
g37
I10
sg38
I5
sg39
I1
sg40
I69
sg41
I10
sg42
I68
sbssg52
(dp842
sbssI68
(dp843
g15
g0
(g18
g2
Ntp844
Rp845
(dp846
g22
(lp847
sg24
S'ovs-sw69'
p848
sg26
Nsg27
I69
sg28
Nsg29
Nsg30
Nsg31
(dp849
I0
g142
sI1
g840
sI2
g0
(g33
g2
Ntp850
Rp851
(dp852
g37
I10
sg38
I2
sg39
I0
sg40
I106
sg41
I10
sg42
I69
sbsI3
g0
(g33
g2
Ntp853
Rp854
(dp855
g37
I10
sg38
I3
sg39
I0
sg40
I107
sg41
I10
sg42
I69
sbsI4
g0
(g33
g2
Ntp856
Rp857
(dp858
g37
I10
sg38
I4
sg39
I0
sg40
I108
sg41
I10
sg42
I69
sbsI5
g0
(g33
g2
Ntp859
Rp860
(dp861
g37
I10
sg38
I5
sg39
I0
sg40
I109
sg41
I10
sg42
I69
sbssg52
(dp862
sbssI69
(dp863
g15
g0
(g18
g2
Ntp864
Rp865
(dp866
g22
(lp867
sg24
S'ovs-sw70'
p868
sg26
Nsg27
I70
sg28
Nsg29
Nsg30
Nsg31
(dp869
I0
g828
sI1
g0
(g33
g2
Ntp870
Rp871
(dp872
g37
I10
sg38
I1
sg39
I0
sg40
I80
sg41
I10
sg42
I70
sbsI2
g0
(g33
g2
Ntp873
Rp874
(dp875
g37
I10
sg38
I2
sg39
I0
sg40
I74
sg41
I10
sg42
I70
sbsI3
g0
(g33
g2
Ntp876
Rp877
(dp878
g37
I10
sg38
I3
sg39
I0
sg40
I76
sg41
I10
sg42
I70
sbsI4
g0
(g33
g2
Ntp879
Rp880
(dp881
g37
I10
sg38
I4
sg39
I0
sg40
I78
sg41
I10
sg42
I70
sbssg52
(dp882
sbssI70
(dp883
g15
g0
(g18
g2
Ntp884
Rp885
(dp886
g22
(lp887
sg24
S'ovs-sw71'
p888
sg26
Nsg27
I71
sg28
Nsg29
Nsg30
Nsg31
(dp889
I0
g831
sI1
g0
(g33
g2
Ntp890
Rp891
(dp892
g37
I10
sg38
I1
sg39
I1
sg40
I80
sg41
I10
sg42
I71
sbsI2
g0
(g33
g2
Ntp893
Rp894
(dp895
g37
I10
sg38
I2
sg39
I1
sg40
I74
sg41
I10
sg42
I71
sbsI3
g0
(g33
g2
Ntp896
Rp897
(dp898
g37
I10
sg38
I3
sg39
I1
sg40
I76
sg41
I10
sg42
I71
sbsI4
g0
(g33
g2
Ntp899
Rp900
(dp901
g37
I10
sg38
I4
sg39
I1
sg40
I78
sg41
I10
sg42
I71
sbssg52
(dp902
sbssI71
(dp903
g15
g0
(g18
g2
Ntp904
Rp905
(dp906
g22
(lp907
sg24
S'ovs-sw72'
p908
sg26
Nsg27
I72
sg28
Nsg29
Nsg30
Nsg31
(dp909
I0
g834
sI1
g0
(g33
g2
Ntp910
Rp911
(dp912
g37
I10
sg38
I1
sg39
I0
sg40
I81
sg41
I10
sg42
I72
sbsI2
g0
(g33
g2
Ntp913
Rp914
(dp915
g37
I10
sg38
I2
sg39
I0
sg40
I75
sg41
I10
sg42
I72
sbsI3
g0
(g33
g2
Ntp916
Rp917
(dp918
g37
I10
sg38
I3
sg39
I0
sg40
I77
sg41
I10
sg42
I72
sbsI4
g0
(g33
g2
Ntp919
Rp920
(dp921
g37
I10
sg38
I4
sg39
I0
sg40
I79
sg41
I10
sg42
I72
sbssg52
(dp922
sbssI72
(dp923
g15
g0
(g18
g2
Ntp924
Rp925
(dp926
g22
(lp927
sg24
S'ovs-sw73'
p928
sg26
Nsg27
I73
sg28
Nsg29
Nsg30
Nsg31
(dp929
I0
g837
sI1
g0
(g33
g2
Ntp930
Rp931
(dp932
g37
I10
sg38
I1
sg39
I1
sg40
I81
sg41
I10
sg42
I73
sbsI2
g0
(g33
g2
Ntp933
Rp934
(dp935
g37
I10
sg38
I2
sg39
I1
sg40
I75
sg41
I10
sg42
I73
sbsI3
g0
(g33
g2
Ntp936
Rp937
(dp938
g37
I10
sg38
I3
sg39
I1
sg40
I77
sg41
I10
sg42
I73
sbsI4
g0
(g33
g2
Ntp939
Rp940
(dp941
g37
I10
sg38
I4
sg39
I1
sg40
I79
sg41
I10
sg42
I73
sbssg52
(dp942
sbssI73
(dp943
g15
g0
(g18
g2
Ntp944
Rp945
(dp946
g22
(lp947
sg24
S'ovs-sw74'
p948
sg26
Nsg27
I74
sg28
Nsg29
Nsg30
Nsg31
(dp949
I0
g874
sI1
g894
sI2
g0
(g33
g2
Ntp950
Rp951
(dp952
g37
I10
sg38
I2
sg39
I0
sg40
I82
sg41
I10
sg42
I74
sbsI3
g0
(g33
g2
Ntp953
Rp954
(dp955
g37
I10
sg38
I3
sg39
I0
sg40
I83
sg41
I10
sg42
I74
sbssg52
(dp956
sbssI74
(dp957
g15
g0
(g18
g2
Ntp958
Rp959
(dp960
g22
(lp961
sg24
S'ovs-sw75'
p962
sg26
Nsg27
I75
sg28
Nsg29
Nsg30
Nsg31
(dp963
I0
g914
sI1
g934
sI2
g0
(g33
g2
Ntp964
Rp965
(dp966
g37
I10
sg38
I2
sg39
I1
sg40
I82
sg41
I10
sg42
I75
sbsI3
g0
(g33
g2
Ntp967
Rp968
(dp969
g37
I10
sg38
I3
sg39
I1
sg40
I83
sg41
I10
sg42
I75
sbssg52
(dp970
sbssI75
(dp971
g15
g0
(g18
g2
Ntp972
Rp973
(dp974
g22
(lp975
sg24
S'ovs-sw76'
p976
sg26
Nsg27
I76
sg28
Nsg29
Nsg30
Nsg31
(dp977
I0
g877
sI1
g897
sI2
g0
(g33
g2
Ntp978
Rp979
(dp980
g37
I10
sg38
I2
sg39
I0
sg40
I84
sg41
I10
sg42
I76
sbsI3
g0
(g33
g2
Ntp981
Rp982
(dp983
g37
I10
sg38
I3
sg39
I0
sg40
I85
sg41
I10
sg42
I76
sbssg52
(dp984
sbssI76
(dp985
g15
g0
(g18
g2
Ntp986
Rp987
(dp988
g22
(lp989
sg24
S'ovs-sw77'
p990
sg26
Nsg27
I77
sg28
Nsg29
Nsg30
Nsg31
(dp991
I0
g917
sI1
g937
sI2
g0
(g33
g2
Ntp992
Rp993
(dp994
g37
I10
sg38
I2
sg39
I1
sg40
I84
sg41
I10
sg42
I77
sbsI3
g0
(g33
g2
Ntp995
Rp996
(dp997
g37
I10
sg38
I3
sg39
I1
sg40
I85
sg41
I10
sg42
I77
sbssg52
(dp998
sbssI77
(dp999
g15
g0
(g18
g2
Ntp1000
Rp1001
(dp1002
g22
(lp1003
sg24
S'ovs-sw78'
p1004
sg26
Nsg27
I78
sg28
Nsg29
Nsg30
Nsg31
(dp1005
I0
g880
sI1
g900
sI2
g0
(g33
g2
Ntp1006
Rp1007
(dp1008
g37
I10
sg38
I2
sg39
I0
sg40
I87
sg41
I10
sg42
I78
sbsI3
g0
(g33
g2
Ntp1009
Rp1010
(dp1011
g37
I10
sg38
I3
sg39
I0
sg40
I86
sg41
I10
sg42
I78
sbssg52
(dp1012
sbssI78
(dp1013
g15
g0
(g18
g2
Ntp1014
Rp1015
(dp1016
g22
(lp1017
sg24
S'ovs-sw79'
p1018
sg26
Nsg27
I79
sg28
Nsg29
Nsg30
Nsg31
(dp1019
I0
g920
sI1
g940
sI2
g0
(g33
g2
Ntp1020
Rp1021
(dp1022
g37
I10
sg38
I2
sg39
I1
sg40
I86
sg41
I10
sg42
I79
sbsI3
g0
(g33
g2
Ntp1023
Rp1024
(dp1025
g37
I10
sg38
I3
sg39
I1
sg40
I87
sg41
I10
sg42
I79
sbssg52
(dp1026
sbssI79
(dp1027
g15
g0
(g18
g2
Ntp1028
Rp1029
(dp1030
g22
(lp1031
sg24
S'ovs-sw80'
p1032
sg26
Nsg27
I80
sg28
Nsg29
Nsg30
Nsg31
(dp1033
I0
g871
sI1
g891
sI2
g0
(g33
g2
Ntp1034
Rp1035
(dp1036
g37
I10
sg38
I2
sg39
I0
sg40
I88
sg41
I10
sg42
I80
sbsI3
g0
(g33
g2
Ntp1037
Rp1038
(dp1039
g37
I10
sg38
I3
sg39
I0
sg40
I89
sg41
I10
sg42
I80
sbssg52
(dp1040
sbssI80
(dp1041
g15
g0
(g18
g2
Ntp1042
Rp1043
(dp1044
g22
(lp1045
sg24
S'ovs-sw81'
p1046
sg26
Nsg27
I81
sg28
Nsg29
Nsg30
Nsg31
(dp1047
I0
g911
sI1
g931
sI2
g0
(g33
g2
Ntp1048
Rp1049
(dp1050
g37
I10
sg38
I2
sg39
I1
sg40
I88
sg41
I10
sg42
I81
sbsI3
g0
(g33
g2
Ntp1051
Rp1052
(dp1053
g37
I10
sg38
I3
sg39
I1
sg40
I89
sg41
I10
sg42
I81
sbssg52
(dp1054
sbssI81
(dp1055
g15
g0
(g18
g2
Ntp1056
Rp1057
(dp1058
g22
(lp1059
sg24
S'ovs-sw82'
p1060
sg26
Nsg27
I82
sg28
Nsg29
Nsg30
Nsg31
(dp1061
I0
g951
sI1
g965
sI2
g0
(g33
g2
Ntp1062
Rp1063
(dp1064
g37
I10
sg38
I2
sg39
I0
sg40
I91
sg41
I10
sg42
I82
sbsI3
g0
(g33
g2
Ntp1065
Rp1066
(dp1067
g37
I10
sg38
I3
sg39
I0
sg40
I90
sg41
I10
sg42
I82
sbssg52
(dp1068
sbssI82
(dp1069
g15
g0
(g18
g2
Ntp1070
Rp1071
(dp1072
g22
(lp1073
sg24
S'ovs-sw83'
p1074
sg26
Nsg27
I83
sg28
Nsg29
Nsg30
Nsg31
(dp1075
I0
g954
sI1
g968
sI2
g0
(g33
g2
Ntp1076
Rp1077
(dp1078
g37
I10
sg38
I2
sg39
I0
sg40
I92
sg41
I10
sg42
I83
sbsI3
g0
(g33
g2
Ntp1079
Rp1080
(dp1081
g37
I10
sg38
I3
sg39
I0
sg40
I93
sg41
I10
sg42
I83
sbssg52
(dp1082
sbssI83
(dp1083
g15
g0
(g18
g2
Ntp1084
Rp1085
(dp1086
g22
(lp1087
sg24
S'ovs-sw84'
p1088
sg26
Nsg27
I84
sg28
Nsg29
Nsg30
Nsg31
(dp1089
I0
g979
sI1
g993
sI2
g0
(g33
g2
Ntp1090
Rp1091
(dp1092
g37
I10
sg38
I2
sg39
I0
sg40
I94
sg41
I10
sg42
I84
sbsI3
g0
(g33
g2
Ntp1093
Rp1094
(dp1095
g37
I10
sg38
I3
sg39
I0
sg40
I95
sg41
I10
sg42
I84
sbssg52
(dp1096
sbssI84
(dp1097
g15
g0
(g18
g2
Ntp1098
Rp1099
(dp1100
g22
(lp1101
sg24
S'ovs-sw85'
p1102
sg26
Nsg27
I85
sg28
Nsg29
Nsg30
Nsg31
(dp1103
I0
g982
sI1
g996
sI2
g0
(g33
g2
Ntp1104
Rp1105
(dp1106
g37
I10
sg38
I2
sg39
I0
sg40
I96
sg41
I10
sg42
I85
sbsI3
g0
(g33
g2
Ntp1107
Rp1108
(dp1109
g37
I10
sg38
I3
sg39
I0
sg40
I97
sg41
I10
sg42
I85
sbssg52
(dp1110
sbssI85
(dp1111
g15
g0
(g18
g2
Ntp1112
Rp1113
(dp1114
g22
(lp1115
sg24
S'ovs-sw86'
p1116
sg26
Nsg27
I86
sg28
Nsg29
Nsg30
Nsg31
(dp1117
I0
g1010
sI1
g1021
sI2
g0
(g33
g2
Ntp1118
Rp1119
(dp1120
g37
I10
sg38
I2
sg39
I0
sg40
I98
sg41
I10
sg42
I86
sbsI3
g0
(g33
g2
Ntp1121
Rp1122
(dp1123
g37
I10
sg38
I3
sg39
I0
sg40
I99
sg41
I10
sg42
I86
sbssg52
(dp1124
sbssI86
(dp1125
g15
g0
(g18
g2
Ntp1126
Rp1127
(dp1128
g22
(lp1129
sg24
S'ovs-sw87'
p1130
sg26
Nsg27
I87
sg28
Nsg29
Nsg30
Nsg31
(dp1131
I0
g1007
sI1
g1024
sI2
g0
(g33
g2
Ntp1132
Rp1133
(dp1134
g37
I10
sg38
I2
sg39
I0
sg40
I100
sg41
I10
sg42
I87
sbsI3
g0
(g33
g2
Ntp1135
Rp1136
(dp1137
g37
I10
sg38
I3
sg39
I0
sg40
I101
sg41
I10
sg42
I87
sbssg52
(dp1138
sbssI87
(dp1139
g15
g0
(g18
g2
Ntp1140
Rp1141
(dp1142
g22
(lp1143
sg24
S'ovs-sw88'
p1144
sg26
Nsg27
I88
sg28
Nsg29
Nsg30
Nsg31
(dp1145
I0
g1035
sI1
g1049
sI2
g0
(g33
g2
Ntp1146
Rp1147
(dp1148
g37
I10
sg38
I2
sg39
I0
sg40
I102
sg41
I10
sg42
I88
sbsI3
g0
(g33
g2
Ntp1149
Rp1150
(dp1151
g37
I10
sg38
I3
sg39
I0
sg40
I103
sg41
I10
sg42
I88
sbssg52
(dp1152
sbssI88
(dp1153
g15
g0
(g18
g2
Ntp1154
Rp1155
(dp1156
g22
(lp1157
sg24
S'ovs-sw89'
p1158
sg26
Nsg27
I89
sg28
Nsg29
Nsg30
Nsg31
(dp1159
I0
g1038
sI1
g1052
sI2
g0
(g33
g2
Ntp1160
Rp1161
(dp1162
g37
I10
sg38
I2
sg39
I0
sg40
I104
sg41
I10
sg42
I89
sbsI3
g0
(g33
g2
Ntp1163
Rp1164
(dp1165
g37
I10
sg38
I3
sg39
I0
sg40
I105
sg41
I10
sg42
I89
sbssg52
(dp1166
sbssI89
(dp1167
g15
g0
(g18
g2
Ntp1168
Rp1169
(dp1170
g22
(lp1171
sg24
S'ovs-sw90'
p1172
sg26
Nsg27
I90
sg28
Nsg29
Nsg30
Nsg31
(dp1173
I0
g1066
ssg52
(dp1174
sbssI90
(dp1175
g15
g0
(g18
g2
Ntp1176
Rp1177
(dp1178
g22
(lp1179
sg24
S'ovs-sw91'
p1180
sg26
Nsg27
I91
sg28
Nsg29
Nsg30
Nsg31
(dp1181
I0
g1063
ssg52
(dp1182
sbssI91
(dp1183
g15
g0
(g18
g2
Ntp1184
Rp1185
(dp1186
g22
(lp1187
sg24
S'ovs-sw92'
p1188
sg26
Nsg27
I92
sg28
Nsg29
Nsg30
Nsg31
(dp1189
I0
g1077
ssg52
(dp1190
sbssI92
(dp1191
g15
g0
(g18
g2
Ntp1192
Rp1193
(dp1194
g22
(lp1195
sg24
S'ovs-sw93'
p1196
sg26
Nsg27
I93
sg28
Nsg29
Nsg30
Nsg31
(dp1197
I0
g1080
ssg52
(dp1198
sbssI93
(dp1199
g15
g0
(g18
g2
Ntp1200
Rp1201
(dp1202
g22
(lp1203
sg24
S'ovs-sw94'
p1204
sg26
Nsg27
I94
sg28
Nsg29
Nsg30
Nsg31
(dp1205
I0
g1091
ssg52
(dp1206
sbssI94
(dp1207
g15
g0
(g18
g2
Ntp1208
Rp1209
(dp1210
g22
(lp1211
sg24
S'ovs-sw95'
p1212
sg26
Nsg27
I95
sg28
Nsg29
Nsg30
Nsg31
(dp1213
I0
g1094
ssg52
(dp1214
sbssI95
(dp1215
g15
g0
(g18
g2
Ntp1216
Rp1217
(dp1218
g22
(lp1219
sg24
S'ovs-sw96'
p1220
sg26
Nsg27
I96
sg28
Nsg29
Nsg30
Nsg31
(dp1221
I0
g1105
ssg52
(dp1222
sbssI96
(dp1223
g15
g0
(g18
g2
Ntp1224
Rp1225
(dp1226
g22
(lp1227
sg24
S'ovs-sw97'
p1228
sg26
Nsg27
I97
sg28
Nsg29
Nsg30
Nsg31
(dp1229
I0
g1108
ssg52
(dp1230
sbssI97
(dp1231
g15
g0
(g18
g2
Ntp1232
Rp1233
(dp1234
g22
(lp1235
sg24
S'ovs-sw98'
p1236
sg26
Nsg27
I98
sg28
Nsg29
Nsg30
Nsg31
(dp1237
I0
g1119
ssg52
(dp1238
sbssI98
(dp1239
g15
g0
(g18
g2
Ntp1240
Rp1241
(dp1242
g22
(lp1243
sg24
S'ovs-sw99'
p1244
sg26
Nsg27
I99
sg28
Nsg29
Nsg30
Nsg31
(dp1245
I0
g1122
ssg52
(dp1246
sbssI99
(dp1247
g15
g0
(g18
g2
Ntp1248
Rp1249
(dp1250
g22
(lp1251
sg24
S'ovs-sw100'
p1252
sg26
Nsg27
I100
sg28
Nsg29
Nsg30
Nsg31
(dp1253
I0
g1133
ssg52
(dp1254
sbssI100
(dp1255
g15
g0
(g18
g2
Ntp1256
Rp1257
(dp1258
g22
(lp1259
sg24
S'ovs-sw101'
p1260
sg26
Nsg27
I101
sg28
Nsg29
Nsg30
Nsg31
(dp1261
I0
g1136
ssg52
(dp1262
sbssI101
(dp1263
g15
g0
(g18
g2
Ntp1264
Rp1265
(dp1266
g22
(lp1267
sg24
S'ovs-sw102'
p1268
sg26
Nsg27
I102
sg28
Nsg29
Nsg30
Nsg31
(dp1269
I0
g1147
ssg52
(dp1270
sbssI102
(dp1271
g15
g0
(g18
g2
Ntp1272
Rp1273
(dp1274
g22
(lp1275
sg24
S'ovs-sw103'
p1276
sg26
Nsg27
I103
sg28
Nsg29
Nsg30
Nsg31
(dp1277
I0
g1150
ssg52
(dp1278
sbssI103
(dp1279
g15
g0
(g18
g2
Ntp1280
Rp1281
(dp1282
g22
(lp1283
sg24
S'ovs-sw104'
p1284
sg26
Nsg27
I104
sg28
Nsg29
Nsg30
Nsg31
(dp1285
I0
g1161
ssg52
(dp1286
sbssI104
(dp1287
g15
g0
(g18
g2
Ntp1288
Rp1289
(dp1290
g22
(lp1291
sg24
S'ovs-sw105'
p1292
sg26
Nsg27
I105
sg28
Nsg29
Nsg30
Nsg31
(dp1293
I0
g1164
ssg52
(dp1294
sbssI105
(dp1295
g15
g0
(g18
g2
Ntp1296
Rp1297
(dp1298
g22
(lp1299
sg24
S'ovs-sw106'
p1300
sg26
Nsg27
I106
sg28
Nsg29
Nsg30
Nsg31
(dp1301
I0
g851
sI1
g0
(g33
g2
Ntp1302
Rp1303
(dp1304
g37
I10
sg38
I1
sg39
I0
sg40
I112
sg41
I10
sg42
I106
sbsI2
g0
(g33
g2
Ntp1305
Rp1306
(dp1307
g37
I10
sg38
I2
sg39
I0
sg40
I114
sg41
I10
sg42
I106
sbsI3
g0
(g33
g2
Ntp1308
Rp1309
(dp1310
g37
I10
sg38
I3
sg39
I0
sg40
I116
sg41
I10
sg42
I106
sbsI4
g0
(g33
g2
Ntp1311
Rp1312
(dp1313
g37
I10
sg38
I4
sg39
I0
sg40
I110
sg41
I10
sg42
I106
sbssg52
(dp1314
sbssI106
(dp1315
g15
g0
(g18
g2
Ntp1316
Rp1317
(dp1318
g22
(lp1319
sg24
S'ovs-sw107'
p1320
sg26
Nsg27
I107
sg28
Nsg29
Nsg30
Nsg31
(dp1321
I0
g854
sI1
g0
(g33
g2
Ntp1322
Rp1323
(dp1324
g37
I10
sg38
I1
sg39
I1
sg40
I112
sg41
I10
sg42
I107
sbsI2
g0
(g33
g2
Ntp1325
Rp1326
(dp1327
g37
I10
sg38
I2
sg39
I1
sg40
I114
sg41
I10
sg42
I107
sbsI3
g0
(g33
g2
Ntp1328
Rp1329
(dp1330
g37
I10
sg38
I3
sg39
I1
sg40
I116
sg41
I10
sg42
I107
sbsI4
g0
(g33
g2
Ntp1331
Rp1332
(dp1333
g37
I10
sg38
I4
sg39
I1
sg40
I110
sg41
I10
sg42
I107
sbssg52
(dp1334
sbssI107
(dp1335
g15
g0
(g18
g2
Ntp1336
Rp1337
(dp1338
g22
(lp1339
sg24
S'ovs-sw108'
p1340
sg26
Nsg27
I108
sg28
Nsg29
Nsg30
Nsg31
(dp1341
I0
g857
sI1
g0
(g33
g2
Ntp1342
Rp1343
(dp1344
g37
I10
sg38
I1
sg39
I0
sg40
I113
sg41
I10
sg42
I108
sbsI2
g0
(g33
g2
Ntp1345
Rp1346
(dp1347
g37
I10
sg38
I2
sg39
I0
sg40
I115
sg41
I10
sg42
I108
sbsI3
g0
(g33
g2
Ntp1348
Rp1349
(dp1350
g37
I10
sg38
I3
sg39
I0
sg40
I117
sg41
I10
sg42
I108
sbsI4
g0
(g33
g2
Ntp1351
Rp1352
(dp1353
g37
I10
sg38
I4
sg39
I0
sg40
I111
sg41
I10
sg42
I108
sbssg52
(dp1354
sbssI108
(dp1355
g15
g0
(g18
g2
Ntp1356
Rp1357
(dp1358
g22
(lp1359
sg24
S'ovs-sw109'
p1360
sg26
Nsg27
I109
sg28
Nsg29
Nsg30
Nsg31
(dp1361
I0
g860
sI1
g0
(g33
g2
Ntp1362
Rp1363
(dp1364
g37
I10
sg38
I1
sg39
I1
sg40
I113
sg41
I10
sg42
I109
sbsI2
g0
(g33
g2
Ntp1365
Rp1366
(dp1367
g37
I10
sg38
I2
sg39
I1
sg40
I115
sg41
I10
sg42
I109
sbsI3
g0
(g33
g2
Ntp1368
Rp1369
(dp1370
g37
I10
sg38
I3
sg39
I1
sg40
I117
sg41
I10
sg42
I109
sbsI4
g0
(g33
g2
Ntp1371
Rp1372
(dp1373
g37
I10
sg38
I4
sg39
I1
sg40
I111
sg41
I10
sg42
I109
sbssg52
(dp1374
sbssI109
(dp1375
g15
g0
(g18
g2
Ntp1376
Rp1377
(dp1378
g22
(lp1379
sg24
S'ovs-sw110'
p1380
sg26
Nsg27
I110
sg28
Nsg29
Nsg30
Nsg31
(dp1381
I0
g1312
sI1
g1332
sI2
g0
(g33
g2
Ntp1382
Rp1383
(dp1384
g37
I10
sg38
I2
sg39
I0
sg40
I118
sg41
I10
sg42
I110
sbsI3
g0
(g33
g2
Ntp1385
Rp1386
(dp1387
g37
I10
sg38
I3
sg39
I0
sg40
I119
sg41
I10
sg42
I110
sbssg52
(dp1388
sbssI110
(dp1389
g15
g0
(g18
g2
Ntp1390
Rp1391
(dp1392
g22
(lp1393
sg24
S'ovs-sw111'
p1394
sg26
Nsg27
I111
sg28
Nsg29
Nsg30
Nsg31
(dp1395
I0
g1352
sI1
g1372
sI2
g0
(g33
g2
Ntp1396
Rp1397
(dp1398
g37
I10
sg38
I2
sg39
I1
sg40
I118
sg41
I10
sg42
I111
sbsI3
g0
(g33
g2
Ntp1399
Rp1400
(dp1401
g37
I10
sg38
I3
sg39
I1
sg40
I119
sg41
I10
sg42
I111
sbssg52
(dp1402
sbssI111
(dp1403
g15
g0
(g18
g2
Ntp1404
Rp1405
(dp1406
g22
(lp1407
sg24
S'ovs-sw112'
p1408
sg26
Nsg27
I112
sg28
Nsg29
Nsg30
Nsg31
(dp1409
I0
g1303
sI1
g1323
sI2
g0
(g33
g2
Ntp1410
Rp1411
(dp1412
g37
I10
sg38
I2
sg39
I0
sg40
I120
sg41
I10
sg42
I112
sbsI3
g0
(g33
g2
Ntp1413
Rp1414
(dp1415
g37
I10
sg38
I3
sg39
I0
sg40
I121
sg41
I10
sg42
I112
sbssg52
(dp1416
sbssI112
(dp1417
g15
g0
(g18
g2
Ntp1418
Rp1419
(dp1420
g22
(lp1421
sg24
S'ovs-sw113'
p1422
sg26
Nsg27
I113
sg28
Nsg29
Nsg30
Nsg31
(dp1423
I0
g1343
sI1
g1363
sI2
g0
(g33
g2
Ntp1424
Rp1425
(dp1426
g37
I10
sg38
I2
sg39
I1
sg40
I120
sg41
I10
sg42
I113
sbsI3
g0
(g33
g2
Ntp1427
Rp1428
(dp1429
g37
I10
sg38
I3
sg39
I1
sg40
I121
sg41
I10
sg42
I113
sbssg52
(dp1430
sbssI113
(dp1431
g15
g0
(g18
g2
Ntp1432
Rp1433
(dp1434
g22
(lp1435
sg24
S'ovs-sw114'
p1436
sg26
Nsg27
I114
sg28
Nsg29
Nsg30
Nsg31
(dp1437
I0
g1306
sI1
g1326
sI2
g0
(g33
g2
Ntp1438
Rp1439
(dp1440
g37
I10
sg38
I2
sg39
I0
sg40
I123
sg41
I10
sg42
I114
sbsI3
g0
(g33
g2
Ntp1441
Rp1442
(dp1443
g37
I10
sg38
I3
sg39
I0
sg40
I122
sg41
I10
sg42
I114
sbssg52
(dp1444
sbssI114
(dp1445
g15
g0
(g18
g2
Ntp1446
Rp1447
(dp1448
g22
(lp1449
sg24
S'ovs-sw115'
p1450
sg26
Nsg27
I115
sg28
Nsg29
Nsg30
Nsg31
(dp1451
I0
g1346
sI1
g1366
sI2
g0
(g33
g2
Ntp1452
Rp1453
(dp1454
g37
I10
sg38
I2
sg39
I1
sg40
I122
sg41
I10
sg42
I115
sbsI3
g0
(g33
g2
Ntp1455
Rp1456
(dp1457
g37
I10
sg38
I3
sg39
I1
sg40
I123
sg41
I10
sg42
I115
sbssg52
(dp1458
sbssI115
(dp1459
g15
g0
(g18
g2
Ntp1460
Rp1461
(dp1462
g22
(lp1463
sg24
S'ovs-sw116'
p1464
sg26
Nsg27
I116
sg28
Nsg29
Nsg30
Nsg31
(dp1465
I0
g1309
sI1
g1329
sI2
g0
(g33
g2
Ntp1466
Rp1467
(dp1468
g37
I10
sg38
I2
sg39
I0
sg40
I124
sg41
I10
sg42
I116
sbsI3
g0
(g33
g2
Ntp1469
Rp1470
(dp1471
g37
I10
sg38
I3
sg39
I0
sg40
I125
sg41
I10
sg42
I116
sbssg52
(dp1472
sbssI116
(dp1473
g15
g0
(g18
g2
Ntp1474
Rp1475
(dp1476
g22
(lp1477
sg24
S'ovs-sw117'
p1478
sg26
Nsg27
I117
sg28
Nsg29
Nsg30
Nsg31
(dp1479
I0
g1349
sI1
g1369
sI2
g0
(g33
g2
Ntp1480
Rp1481
(dp1482
g37
I10
sg38
I2
sg39
I1
sg40
I124
sg41
I10
sg42
I117
sbsI3
g0
(g33
g2
Ntp1483
Rp1484
(dp1485
g37
I10
sg38
I3
sg39
I1
sg40
I125
sg41
I10
sg42
I117
sbssg52
(dp1486
sbssI117
(dp1487
g15
g0
(g18
g2
Ntp1488
Rp1489
(dp1490
g22
(lp1491
sg24
S'ovs-sw118'
p1492
sg26
Nsg27
I118
sg28
Nsg29
Nsg30
Nsg31
(dp1493
I0
g1383
sI1
g1397
sI2
g0
(g33
g2
Ntp1494
Rp1495
(dp1496
g37
I10
sg38
I2
sg39
I0
sg40
I127
sg41
I10
sg42
I118
sbsI3
g0
(g33
g2
Ntp1497
Rp1498
(dp1499
g37
I10
sg38
I3
sg39
I0
sg40
I126
sg41
I10
sg42
I118
sbssg52
(dp1500
sbssI118
(dp1501
g15
g0
(g18
g2
Ntp1502
Rp1503
(dp1504
g22
(lp1505
sg24
S'ovs-sw119'
p1506
sg26
Nsg27
I119
sg28
Nsg29
Nsg30
Nsg31
(dp1507
I0
g1386
sI1
g1400
sI2
g0
(g33
g2
Ntp1508
Rp1509
(dp1510
g37
I10
sg38
I2
sg39
I0
sg40
I128
sg41
I10
sg42
I119
sbsI3
g0
(g33
g2
Ntp1511
Rp1512
(dp1513
g37
I10
sg38
I3
sg39
I0
sg40
I129
sg41
I10
sg42
I119
sbssg52
(dp1514
sbssI119
(dp1515
g15
g0
(g18
g2
Ntp1516
Rp1517
(dp1518
g22
(lp1519
sg24
S'ovs-sw120'
p1520
sg26
Nsg27
I120
sg28
Nsg29
Nsg30
Nsg31
(dp1521
I0
g1411
sI1
g1425
sI2
g0
(g33
g2
Ntp1522
Rp1523
(dp1524
g37
I10
sg38
I2
sg39
I0
sg40
I130
sg41
I10
sg42
I120
sbsI3
g0
(g33
g2
Ntp1525
Rp1526
(dp1527
g37
I10
sg38
I3
sg39
I0
sg40
I131
sg41
I10
sg42
I120
sbssg52
(dp1528
sbssI120
(dp1529
g15
g0
(g18
g2
Ntp1530
Rp1531
(dp1532
g22
(lp1533
sg24
S'ovs-sw121'
p1534
sg26
Nsg27
I121
sg28
Nsg29
Nsg30
Nsg31
(dp1535
I0
g1414
sI1
g1428
sI2
g0
(g33
g2
Ntp1536
Rp1537
(dp1538
g37
I10
sg38
I2
sg39
I0
sg40
I132
sg41
I10
sg42
I121
sbsI3
g0
(g33
g2
Ntp1539
Rp1540
(dp1541
g37
I10
sg38
I3
sg39
I0
sg40
I133
sg41
I10
sg42
I121
sbssg52
(dp1542
sbssI121
(dp1543
g15
g0
(g18
g2
Ntp1544
Rp1545
(dp1546
g22
(lp1547
sg24
S'ovs-sw122'
p1548
sg26
Nsg27
I122
sg28
Nsg29
Nsg30
Nsg31
(dp1549
I0
g1442
sI1
g1453
sI2
g0
(g33
g2
Ntp1550
Rp1551
(dp1552
g37
I10
sg38
I2
sg39
I0
sg40
I134
sg41
I10
sg42
I122
sbsI3
g0
(g33
g2
Ntp1553
Rp1554
(dp1555
g37
I10
sg38
I3
sg39
I0
sg40
I135
sg41
I10
sg42
I122
sbssg52
(dp1556
sbssI122
(dp1557
g15
g0
(g18
g2
Ntp1558
Rp1559
(dp1560
g22
(lp1561
sg24
S'ovs-sw123'
p1562
sg26
Nsg27
I123
sg28
Nsg29
Nsg30
Nsg31
(dp1563
I0
g1439
sI1
g1456
sI2
g0
(g33
g2
Ntp1564
Rp1565
(dp1566
g37
I10
sg38
I2
sg39
I0
sg40
I136
sg41
I10
sg42
I123
sbsI3
g0
(g33
g2
Ntp1567
Rp1568
(dp1569
g37
I10
sg38
I3
sg39
I0
sg40
I137
sg41
I10
sg42
I123
sbssg52
(dp1570
sbssI123
(dp1571
g15
g0
(g18
g2
Ntp1572
Rp1573
(dp1574
g22
(lp1575
sg24
S'ovs-sw124'
p1576
sg26
Nsg27
I124
sg28
Nsg29
Nsg30
Nsg31
(dp1577
I0
g1467
sI1
g1481
sI2
g0
(g33
g2
Ntp1578
Rp1579
(dp1580
g37
I10
sg38
I2
sg39
I0
sg40
I138
sg41
I10
sg42
I124
sbsI3
g0
(g33
g2
Ntp1581
Rp1582
(dp1583
g37
I10
sg38
I3
sg39
I0
sg40
I139
sg41
I10
sg42
I124
sbssg52
(dp1584
sbssI124
(dp1585
g15
g0
(g18
g2
Ntp1586
Rp1587
(dp1588
g22
(lp1589
sg24
S'ovs-sw125'
p1590
sg26
Nsg27
I125
sg28
Nsg29
Nsg30
Nsg31
(dp1591
I0
g1470
sI1
g1484
sI2
g0
(g33
g2
Ntp1592
Rp1593
(dp1594
g37
I10
sg38
I2
sg39
I0
sg40
I140
sg41
I10
sg42
I125
sbsI3
g0
(g33
g2
Ntp1595
Rp1596
(dp1597
g37
I10
sg38
I3
sg39
I0
sg40
I141
sg41
I10
sg42
I125
sbssg52
(dp1598
sbssI125
(dp1599
g15
g0
(g18
g2
Ntp1600
Rp1601
(dp1602
g22
(lp1603
sg24
S'ovs-sw126'
p1604
sg26
Nsg27
I126
sg28
Nsg29
Nsg30
Nsg31
(dp1605
I0
g1498
ssg52
(dp1606
sbssI126
(dp1607
g15
g0
(g18
g2
Ntp1608
Rp1609
(dp1610
g22
(lp1611
sg24
S'ovs-sw127'
p1612
sg26
Nsg27
I127
sg28
Nsg29
Nsg30
Nsg31
(dp1613
I0
g1495
ssg52
(dp1614
sbssI127
(dp1615
g15
g0
(g18
g2
Ntp1616
Rp1617
(dp1618
g22
(lp1619
sg24
S'ovs-sw128'
p1620
sg26
Nsg27
I128
sg28
Nsg29
Nsg30
Nsg31
(dp1621
I0
g1509
ssg52
(dp1622
sbssI128
(dp1623
g15
g0
(g18
g2
Ntp1624
Rp1625
(dp1626
g22
(lp1627
sg24
S'ovs-sw129'
p1628
sg26
Nsg27
I129
sg28
Nsg29
Nsg30
Nsg31
(dp1629
I0
g1512
ssg52
(dp1630
sbssI129
(dp1631
g15
g0
(g18
g2
Ntp1632
Rp1633
(dp1634
g22
(lp1635
sg24
S'ovs-sw130'
p1636
sg26
Nsg27
I130
sg28
Nsg29
Nsg30
Nsg31
(dp1637
I0
g1523
ssg52
(dp1638
sbssI130
(dp1639
g15
g0
(g18
g2
Ntp1640
Rp1641
(dp1642
g22
(lp1643
sg24
S'ovs-sw131'
p1644
sg26
Nsg27
I131
sg28
Nsg29
Nsg30
Nsg31
(dp1645
I0
g1526
ssg52
(dp1646
sbssI131
(dp1647
g15
g0
(g18
g2
Ntp1648
Rp1649
(dp1650
g22
(lp1651
sg24
S'ovs-sw132'
p1652
sg26
Nsg27
I132
sg28
Nsg29
Nsg30
Nsg31
(dp1653
I0
g1537
ssg52
(dp1654
sbssI132
(dp1655
g15
g0
(g18
g2
Ntp1656
Rp1657
(dp1658
g22
(lp1659
sg24
S'ovs-sw133'
p1660
sg26
Nsg27
I133
sg28
Nsg29
Nsg30
Nsg31
(dp1661
I0
g1540
ssg52
(dp1662
sbssI133
(dp1663
g15
g0
(g18
g2
Ntp1664
Rp1665
(dp1666
g22
(lp1667
sg24
S'ovs-sw134'
p1668
sg26
Nsg27
I134
sg28
Nsg29
Nsg30
Nsg31
(dp1669
I0
g1551
ssg52
(dp1670
sbssI134
(dp1671
g15
g0
(g18
g2
Ntp1672
Rp1673
(dp1674
g22
(lp1675
sg24
S'ovs-sw135'
p1676
sg26
Nsg27
I135
sg28
Nsg29
Nsg30
Nsg31
(dp1677
I0
g1554
ssg52
(dp1678
sbssI135
(dp1679
g15
g0
(g18
g2
Ntp1680
Rp1681
(dp1682
g22
(lp1683
sg24
S'ovs-sw136'
p1684
sg26
Nsg27
I136
sg28
Nsg29
Nsg30
Nsg31
(dp1685
I0
g1565
ssg52
(dp1686
sbssI136
(dp1687
g15
g0
(g18
g2
Ntp1688
Rp1689
(dp1690
g22
(lp1691
sg24
S'ovs-sw137'
p1692
sg26
Nsg27
I137
sg28
Nsg29
Nsg30
Nsg31
(dp1693
I0
g1568
ssg52
(dp1694
sbssI137
(dp1695
g15
g0
(g18
g2
Ntp1696
Rp1697
(dp1698
g22
(lp1699
sg24
S'ovs-sw138'
p1700
sg26
Nsg27
I138
sg28
Nsg29
Nsg30
Nsg31
(dp1701
I0
g1579
ssg52
(dp1702
sbssI138
(dp1703
g15
g0
(g18
g2
Ntp1704
Rp1705
(dp1706
g22
(lp1707
sg24
S'ovs-sw139'
p1708
sg26
Nsg27
I139
sg28
Nsg29
Nsg30
Nsg31
(dp1709
I0
g1582
ssg52
(dp1710
sbssI139
(dp1711
g15
g0
(g18
g2
Ntp1712
Rp1713
(dp1714
g22
(lp1715
sg24
S'ovs-sw140'
p1716
sg26
Nsg27
I140
sg28
Nsg29
Nsg30
Nsg31
(dp1717
I0
g1593
ssg52
(dp1718
sbssI140
(dp1719
g15
g0
(g18
g2
Ntp1720
Rp1721
(dp1722
g22
(lp1723
sg24
S'ovs-sw141'
p1724
sg26
Nsg27
I141
sg28
Nsg29
Nsg30
Nsg31
(dp1725
I0
g1596
ssg52
(dp1726
sbssI141
(dp1727
g15
g0
(g18
g2
Ntp1728
Rp1729
(dp1730
g22
(lp1731
sg24
S'ovs-sw142'
p1732
sg26
Nsg27
I142
sg28
Nsg29
Nsg30
Nsg31
(dp1733
I0
g156
sI1
g0
(g33
g2
Ntp1734
Rp1735
(dp1736
g37
I10
sg38
I1
sg39
I0
sg40
I149
sg41
I10
sg42
I142
sbsI2
g0
(g33
g2
Ntp1737
Rp1738
(dp1739
g37
I10
sg38
I2
sg39
I1
sg40
I143
sg41
I10
sg42
I142
sbssg52
(dp1740
sbssI142
(dp1741
g15
g0
(g18
g2
Ntp1742
Rp1743
(dp1744
g22
(lp1745
sg24
S'ovs-sw143'
p1746
sg26
Nsg27
I143
sg28
Nsg29
Nsg30
Nsg31
(dp1747
I0
g153
sI1
g1738
sI2
g0
(g33
g2
Ntp1748
Rp1749
(dp1750
g37
I10
sg38
I2
sg39
I0
sg40
I155
sg41
I10
sg42
I143
sbssg52
(dp1751
sbssI143
(dp1752
g15
g0
(g18
g2
Ntp1753
Rp1754
(dp1755
g22
(lp1756
sg24
S'ovs-sw144'
p1757
sg26
Nsg27
I144
sg28
Nsg29
Nsg30
Nsg31
(dp1758
I0
g0
(g33
g2
Ntp1759
Rp1760
(dp1761
g37
I10
sg38
I0
sg39
I1
sg40
I149
sg41
I10
sg42
I144
sbssg52
(dp1762
sbssI144
(dp1763
g15
g0
(g18
g2
Ntp1764
Rp1765
(dp1766
g22
(lp1767
sg24
S'ovs-sw145'
p1768
sg26
Nsg27
I145
sg28
Nsg29
Nsg30
Nsg31
(dp1769
I0
g0
(g33
g2
Ntp1770
Rp1771
(dp1772
g37
I10
sg38
I0
sg39
I2
sg40
I149
sg41
I10
sg42
I145
sbssg52
(dp1773
sbssI145
(dp1774
g15
g0
(g18
g2
Ntp1775
Rp1776
(dp1777
g22
(lp1778
sg24
S'ovs-sw146'
p1779
sg26
Nsg27
I146
sg28
Nsg29
Nsg30
Nsg31
(dp1780
I0
g0
(g33
g2
Ntp1781
Rp1782
(dp1783
g37
I10
sg38
I0
sg39
I3
sg40
I149
sg41
I10
sg42
I146
sbssg52
(dp1784
sbssI146
(dp1785
g15
g0
(g18
g2
Ntp1786
Rp1787
(dp1788
g22
(lp1789
sg24
S'ovs-sw147'
p1790
sg26
Nsg27
I147
sg28
Nsg29
Nsg30
Nsg31
(dp1791
I0
g0
(g33
g2
Ntp1792
Rp1793
(dp1794
g37
I10
sg38
I0
sg39
I4
sg40
I149
sg41
I10
sg42
I147
sbssg52
(dp1795
sbssI147
(dp1796
g15
g0
(g18
g2
Ntp1797
Rp1798
(dp1799
g22
(lp1800
sg24
S'ovs-sw148'
p1801
sg26
Nsg27
I148
sg28
Nsg29
Nsg30
Nsg31
(dp1802
I0
g0
(g33
g2
Ntp1803
Rp1804
(dp1805
g37
I10
sg38
I0
sg39
I5
sg40
I149
sg41
I10
sg42
I148
sbssg52
(dp1806
sbssI148
(dp1807
g15
g0
(g18
g2
Ntp1808
Rp1809
(dp1810
g22
(lp1811
sg24
S'ovs-sw149'
p1812
sg26
Nsg27
I149
sg28
Nsg29
Nsg30
Nsg31
(dp1813
I0
g1735
sI1
g1760
sI2
g1771
sI3
g1782
sI4
g1793
sI5
g1804
ssg52
(dp1814
sbssI149
(dp1815
g15
g0
(g18
g2
Ntp1816
Rp1817
(dp1818
g22
(lp1819
sg24
S'ovs-sw150'
p1820
sg26
Nsg27
I150
sg28
Nsg29
Nsg30
Nsg31
(dp1821
I0
g0
(g33
g2
Ntp1822
Rp1823
(dp1824
g37
I10
sg38
I0
sg39
I1
sg40
I155
sg41
I10
sg42
I150
sbssg52
(dp1825
sbssI150
(dp1826
g15
g0
(g18
g2
Ntp1827
Rp1828
(dp1829
g22
(lp1830
sg24
S'ovs-sw151'
p1831
sg26
Nsg27
I151
sg28
Nsg29
Nsg30
Nsg31
(dp1832
I0
g0
(g33
g2
Ntp1833
Rp1834
(dp1835
g37
I10
sg38
I0
sg39
I2
sg40
I155
sg41
I10
sg42
I151
sbssg52
(dp1836
sbssI151
(dp1837
g15
g0
(g18
g2
Ntp1838
Rp1839
(dp1840
g22
(lp1841
sg24
S'ovs-sw152'
p1842
sg26
Nsg27
I152
sg28
Nsg29
Nsg30
Nsg31
(dp1843
I0
g0
(g33
g2
Ntp1844
Rp1845
(dp1846
g37
I10
sg38
I0
sg39
I3
sg40
I155
sg41
I10
sg42
I152
sbssg52
(dp1847
sbssI152
(dp1848
g15
g0
(g18
g2
Ntp1849
Rp1850
(dp1851
g22
(lp1852
sg24
S'ovs-sw153'
p1853
sg26
Nsg27
I153
sg28
Nsg29
Nsg30
Nsg31
(dp1854
I0
g0
(g33
g2
Ntp1855
Rp1856
(dp1857
g37
I10
sg38
I0
sg39
I4
sg40
I155
sg41
I10
sg42
I153
sbssg52
(dp1858
sbssI153
(dp1859
g15
g0
(g18
g2
Ntp1860
Rp1861
(dp1862
g22
(lp1863
sg24
S'ovs-sw154'
p1864
sg26
Nsg27
I154
sg28
Nsg29
Nsg30
Nsg31
(dp1865
I0
g0
(g33
g2
Ntp1866
Rp1867
(dp1868
g37
I10
sg38
I0
sg39
I5
sg40
I155
sg41
I10
sg42
I154
sbssg52
(dp1869
sbssI154
(dp1870
g15
g0
(g18
g2
Ntp1871
Rp1872
(dp1873
g22
(lp1874
sg24
S'ovs-sw155'
p1875
sg26
Nsg27
I155
sg28
Nsg29
Nsg30
Nsg31
(dp1876
I0
g1749
sI1
g1823
sI2
g1834
sI3
g1845
sI4
g1856
sI5
g1867
ssg52
(dp1877
sbssI155
(dp1878
g15
g0
(g18
g2
Ntp1879
Rp1880
(dp1881
g22
(lp1882
sg24
S'ovs-sw156'
p1883
sg26
Nsg27
I156
sg28
Nsg29
Nsg30
Nsg31
(dp1884
I0
g176
sI1
g0
(g33
g2
Ntp1885
Rp1886
(dp1887
g37
I10
sg38
I1
sg39
I1
sg40
I157
sg41
I10
sg42
I156
sbsI2
g0
(g33
g2
Ntp1888
Rp1889
(dp1890
g37
I10
sg38
I2
sg39
I0
sg40
I158
sg41
I10
sg42
I156
sbssg52
(dp1891
sbssI156
(dp1892
g15
g0
(g18
g2
Ntp1893
Rp1894
(dp1895
g22
(lp1896
sg24
S'ovs-sw157'
p1897
sg26
Nsg27
I157
sg28
Nsg29
Nsg30
Nsg31
(dp1898
I0
g179
sI1
g1886
sI2
g0
(g33
g2
Ntp1899
Rp1900
(dp1901
g37
I10
sg38
I2
sg39
I0
sg40
I165
sg41
I10
sg42
I157
sbssg52
(dp1902
sbssI157
(dp1903
g15
g0
(g18
g2
Ntp1904
Rp1905
(dp1906
g22
(lp1907
sg24
S'ovs-sw158'
p1908
sg26
Nsg27
I158
sg28
Nsg29
Nsg30
Nsg31
(dp1909
I0
g1889
sI1
g0
(g33
g2
Ntp1910
Rp1911
(dp1912
g37
I10
sg38
I1
sg39
I0
sg40
I160
sg41
I10
sg42
I158
sbsI2
g0
(g33
g2
Ntp1913
Rp1914
(dp1915
g37
I10
sg38
I2
sg39
I0
sg40
I159
sg41
I10
sg42
I158
sbssg52
(dp1916
sbssI158
(dp1917
g15
g0
(g18
g2
Ntp1918
Rp1919
(dp1920
g22
(lp1921
sg24
S'ovs-sw159'
p1922
sg26
Nsg27
I159
sg28
Nsg29
Nsg30
Nsg31
(dp1923
I0
g1914
sI1
g0
(g33
g2
Ntp1924
Rp1925
(dp1926
g37
I10
sg38
I1
sg39
I0
sg40
I161
sg41
I10
sg42
I159
sbssg52
(dp1927
sbssI159
(dp1928
g15
g0
(g18
g2
Ntp1929
Rp1930
(dp1931
g22
(lp1932
sg24
S'ovs-sw160'
p1933
sg26
Nsg27
I160
sg28
Nsg29
Nsg30
Nsg31
(dp1934
I0
g1911
sI1
g0
(g33
g2
Ntp1935
Rp1936
(dp1937
g37
I10
sg38
I1
sg39
I0
sg40
I162
sg41
I10
sg42
I160
sbssg52
(dp1938
sbssI160
(dp1939
g15
g0
(g18
g2
Ntp1940
Rp1941
(dp1942
g22
(lp1943
sg24
S'ovs-sw161'
p1944
sg26
Nsg27
I161
sg28
Nsg29
Nsg30
Nsg31
(dp1945
I0
g1925
sI1
g0
(g33
g2
Ntp1946
Rp1947
(dp1948
g37
I10
sg38
I1
sg39
I0
sg40
I163
sg41
I10
sg42
I161
sbssg52
(dp1949
sbssI161
(dp1950
g15
g0
(g18
g2
Ntp1951
Rp1952
(dp1953
g22
(lp1954
sg24
S'ovs-sw162'
p1955
sg26
Nsg27
I162
sg28
Nsg29
Nsg30
Nsg31
(dp1956
I0
g1936
sI1
g0
(g33
g2
Ntp1957
Rp1958
(dp1959
g37
I10
sg38
I1
sg39
I0
sg40
I164
sg41
I10
sg42
I162
sbssg52
(dp1960
sbssI162
(dp1961
g15
g0
(g18
g2
Ntp1962
Rp1963
(dp1964
g22
(lp1965
sg24
S'ovs-sw163'
p1966
sg26
Nsg27
I163
sg28
Nsg29
Nsg30
Nsg31
(dp1967
I0
g1947
ssg52
(dp1968
sbssI163
(dp1969
g15
g0
(g18
g2
Ntp1970
Rp1971
(dp1972
g22
(lp1973
sg24
S'ovs-sw164'
p1974
sg26
Nsg27
I164
sg28
Nsg29
Nsg30
Nsg31
(dp1975
I0
g1958
ssg52
(dp1976
sbssI164
(dp1977
g15
g0
(g18
g2
Ntp1978
Rp1979
(dp1980
g22
(lp1981
sg24
S'ovs-sw165'
p1982
sg26
Nsg27
I165
sg28
Nsg29
Nsg30
Nsg31
(dp1983
I0
g1900
sI1
g0
(g33
g2
Ntp1984
Rp1985
(dp1986
g37
I10
sg38
I1
sg39
I0
sg40
I166
sg41
I10
sg42
I165
sbsI2
g0
(g33
g2
Ntp1987
Rp1988
(dp1989
g37
I10
sg38
I2
sg39
I0
sg40
I167
sg41
I10
sg42
I165
sbssg52
(dp1990
sbssI165
(dp1991
g15
g0
(g18
g2
Ntp1992
Rp1993
(dp1994
g22
(lp1995
sg24
S'ovs-sw166'
p1996
sg26
Nsg27
I166
sg28
Nsg29
Nsg30
Nsg31
(dp1997
I0
g1985
sI1
g0
(g33
g2
Ntp1998
Rp1999
(dp2000
g37
I10
sg38
I1
sg39
I0
sg40
I168
sg41
I10
sg42
I166
sbssg52
(dp2001
sbssI166
(dp2002
g15
g0
(g18
g2
Ntp2003
Rp2004
(dp2005
g22
(lp2006
sg24
S'ovs-sw167'
p2007
sg26
Nsg27
I167
sg28
Nsg29
Nsg30
Nsg31
(dp2008
I0
g1988
sI1
g0
(g33
g2
Ntp2009
Rp2010
(dp2011
g37
I10
sg38
I1
sg39
I0
sg40
I169
sg41
I10
sg42
I167
sbssg52
(dp2012
sbssI167
(dp2013
g15
g0
(g18
g2
Ntp2014
Rp2015
(dp2016
g22
(lp2017
sg24
S'ovs-sw168'
p2018
sg26
Nsg27
I168
sg28
Nsg29
Nsg30
Nsg31
(dp2019
I0
g1999
sI1
g0
(g33
g2
Ntp2020
Rp2021
(dp2022
g37
I10
sg38
I1
sg39
I0
sg40
I170
sg41
I10
sg42
I168
sbssg52
(dp2023
sbssI168
(dp2024
g15
g0
(g18
g2
Ntp2025
Rp2026
(dp2027
g22
(lp2028
sg24
S'ovs-sw169'
p2029
sg26
Nsg27
I169
sg28
Nsg29
Nsg30
Nsg31
(dp2030
I0
g2010
sI1
g0
(g33
g2
Ntp2031
Rp2032
(dp2033
g37
I10
sg38
I1
sg39
I0
sg40
I171
sg41
I10
sg42
I169
sbssg52
(dp2034
sbssI169
(dp2035
g15
g0
(g18
g2
Ntp2036
Rp2037
(dp2038
g22
(lp2039
sg24
S'ovs-sw170'
p2040
sg26
Nsg27
I170
sg28
Nsg29
Nsg30
Nsg31
(dp2041
I0
g2021
ssg52
(dp2042
sbssI170
(dp2043
g15
g0
(g18
g2
Ntp2044
Rp2045
(dp2046
g22
(lp2047
sg24
S'ovs-sw171'
p2048
sg26
Nsg27
I171
sg28
Nsg29
Nsg30
Nsg31
(dp2049
I0
g2032
ssg52
(dp2050
sbssI171
(dp2051
g15
g0
(g18
g2
Ntp2052
Rp2053
(dp2054
g22
(lp2055
sg24
S'ovs-sw172'
p2056
sg26
Nsg27
I172
sg28
Nsg29
Nsg30
Nsg31
(dp2057
I0
g193
sI1
g0
(g33
g2
Ntp2058
Rp2059
(dp2060
g37
I10
sg38
I1
sg39
I0
sg40
I176
sg41
I1
sg42
I172
sbsI2
g0
(g33
g2
Ntp2061
Rp2062
(dp2063
g37
I10
sg38
I2
sg39
I1
sg40
I173
sg41
I1
sg42
I172
sbssg52
(dp2064
sbssI172
(dp2065
g15
g0
(g18
g2
Ntp2066
Rp2067
(dp2068
g22
(lp2069
sg24
S'ovs-sw173'
p2070
sg26
Nsg27
I173
sg28
Nsg29
Nsg30
Nsg31
(dp2071
I0
g196
sI1
g2062
sI2
g0
(g33
g2
Ntp2072
Rp2073
(dp2074
g37
I10
sg38
I2
sg39
I0
sg40
I178
sg41
I1
sg42
I173
sbssg52
(dp2075
sbssI173
(dp2076
g15
g0
(g18
g2
Ntp2077
Rp2078
(dp2079
g22
(lp2080
sg24
S'ovs-sw174'
p2081
sg26
Nsg27
I174
sg28
Nsg29
Nsg30
Nsg31
(dp2082
I0
g0
(g33
g2
Ntp2083
Rp2084
(dp2085
g37
I10
sg38
I0
sg39
I1
sg40
I176
sg41
I1
sg42
I174
sbssg52
(dp2086
sbssI174
(dp2087
g15
g0
(g18
g2
Ntp2088
Rp2089
(dp2090
g22
(lp2091
sg24
S'ovs-sw175'
p2092
sg26
Nsg27
I175
sg28
Nsg29
Nsg30
Nsg31
(dp2093
I0
g0
(g33
g2
Ntp2094
Rp2095
(dp2096
g37
I10
sg38
I0
sg39
I0
sg40
I177
sg41
I1
sg42
I175
sbssg52
(dp2097
sbssI175
(dp2098
g15
g0
(g18
g2
Ntp2099
Rp2100
(dp2101
g22
(lp2102
sg24
S'ovs-sw176'
p2103
sg26
Nsg27
I176
sg28
Nsg29
Nsg30
Nsg31
(dp2104
I0
g2059
sI1
g2084
sI2
g0
(g33
g2
Ntp2105
Rp2106
(dp2107
g37
I10
sg38
I2
sg39
I1
sg40
I177
sg41
I1
sg42
I176
sbssg52
(dp2108
sbssI176
(dp2109
g15
g0
(g18
g2
Ntp2110
Rp2111
(dp2112
g22
(lp2113
sg24
S'ovs-sw177'
p2114
sg26
Nsg27
I177
sg28
Nsg29
Nsg30
Nsg31
(dp2115
I0
g2095
sI1
g2106
ssg52
(dp2116
sbssI177
(dp2117
g15
g0
(g18
g2
Ntp2118
Rp2119
(dp2120
g22
(lp2121
sg24
S'ovs-sw178'
p2122
sg26
Nsg27
I178
sg28
Nsg29
Nsg30
Nsg31
(dp2123
I0
g2073
sI1
g0
(g33
g2
Ntp2124
Rp2125
(dp2126
g37
I10
sg38
I1
sg39
I0
sg40
I179
sg41
I1
sg42
I178
sbsI2
g0
(g33
g2
Ntp2127
Rp2128
(dp2129
g37
I10
sg38
I2
sg39
I0
sg40
I180
sg41
I1
sg42
I178
sbsI3
g0
(g33
g2
Ntp2130
Rp2131
(dp2132
g37
I10
sg38
I3
sg39
I0
sg40
I181
sg41
I1
sg42
I178
sbssg52
(dp2133
sbssI178
(dp2134
g15
g0
(g18
g2
Ntp2135
Rp2136
(dp2137
g22
(lp2138
sg24
S'ovs-sw179'
p2139
sg26
Nsg27
I179
sg28
Nsg29
Nsg30
Nsg31
(dp2140
I0
g2125
sI1
g0
(g33
g2
Ntp2141
Rp2142
(dp2143
g37
I10
sg38
I1
sg39
I1
sg40
I181
sg41
I1
sg42
I179
sbssg52
(dp2144
sbssI179
(dp2145
g15
g0
(g18
g2
Ntp2146
Rp2147
(dp2148
g22
(lp2149
sg24
S'ovs-sw180'
p2150
sg26
Nsg27
I180
sg28
Nsg29
Nsg30
Nsg31
(dp2151
I0
g2128
sI1
g0
(g33
g2
Ntp2152
Rp2153
(dp2154
g37
I10
sg38
I1
sg39
I2
sg40
I181
sg41
I1
sg42
I180
sbssg52
(dp2155
sbssI180
(dp2156
g15
g0
(g18
g2
Ntp2157
Rp2158
(dp2159
g22
(lp2160
sg24
S'ovs-sw181'
p2161
sg26
Nsg27
I181
sg28
Nsg29
Nsg30
Nsg31
(dp2162
I0
g2131
sI1
g2142
sI2
g2153
ssg52
(dp2163
sbssI181
(dp2164
g15
g0
(g18
g2
Ntp2165
Rp2166
(dp2167
g22
(lp2168
sg24
S'ovs-sw182'
p2169
sg26
Nsg27
I182
sg28
Nsg29
Nsg30
Nsg31
(dp2170
I0
g210
sI1
g0
(g33
g2
Ntp2171
Rp2172
(dp2173
g37
I10
sg38
I1
sg39
I0
sg40
I184
sg41
I10
sg42
I182
sbsI2
g0
(g33
g2
Ntp2174
Rp2175
(dp2176
g37
I10
sg38
I2
sg39
I1
sg40
I183
sg41
I10
sg42
I182
sbssg52
(dp2177
sbssI182
(dp2178
g15
g0
(g18
g2
Ntp2179
Rp2180
(dp2181
g22
(lp2182
sg24
S'ovs-sw183'
p2183
sg26
Nsg27
I183
sg28
Nsg29
Nsg30
Nsg31
(dp2184
I0
g213
sI1
g2175
sI2
g0
(g33
g2
Ntp2185
Rp2186
(dp2187
g37
I10
sg38
I2
sg39
I0
sg40
I191
sg41
I10
sg42
I183
sbssg52
(dp2188
sbssI183
(dp2189
g15
g0
(g18
g2
Ntp2190
Rp2191
(dp2192
g22
(lp2193
sg24
S'ovs-sw184'
p2194
sg26
Nsg27
I184
sg28
Nsg29
Nsg30
Nsg31
(dp2195
I0
g2172
sI1
g0
(g33
g2
Ntp2196
Rp2197
(dp2198
g37
I10
sg38
I1
sg39
I0
sg40
I185
sg41
I10
sg42
I184
sbsI2
g0
(g33
g2
Ntp2199
Rp2200
(dp2201
g37
I10
sg38
I2
sg39
I0
sg40
I186
sg41
I10
sg42
I184
sbssg52
(dp2202
sbssI184
(dp2203
g15
g0
(g18
g2
Ntp2204
Rp2205
(dp2206
g22
(lp2207
sg24
S'ovs-sw185'
p2208
sg26
Nsg27
I185
sg28
Nsg29
Nsg30
Nsg31
(dp2209
I0
g2197
sI1
g0
(g33
g2
Ntp2210
Rp2211
(dp2212
g37
I10
sg38
I1
sg39
I0
sg40
I187
sg41
I10
sg42
I185
sbssg52
(dp2213
sbssI185
(dp2214
g15
g0
(g18
g2
Ntp2215
Rp2216
(dp2217
g22
(lp2218
sg24
S'ovs-sw186'
p2219
sg26
Nsg27
I186
sg28
Nsg29
Nsg30
Nsg31
(dp2220
I0
g2200
sI1
g0
(g33
g2
Ntp2221
Rp2222
(dp2223
g37
I10
sg38
I1
sg39
I0
sg40
I188
sg41
I10
sg42
I186
sbssg52
(dp2224
sbssI186
(dp2225
g15
g0
(g18
g2
Ntp2226
Rp2227
(dp2228
g22
(lp2229
sg24
S'ovs-sw187'
p2230
sg26
Nsg27
I187
sg28
Nsg29
Nsg30
Nsg31
(dp2231
I0
g2211
sI1
g0
(g33
g2
Ntp2232
Rp2233
(dp2234
g37
I10
sg38
I1
sg39
I0
sg40
I189
sg41
I10
sg42
I187
sbssg52
(dp2235
sbssI187
(dp2236
g15
g0
(g18
g2
Ntp2237
Rp2238
(dp2239
g22
(lp2240
sg24
S'ovs-sw188'
p2241
sg26
Nsg27
I188
sg28
Nsg29
Nsg30
Nsg31
(dp2242
I0
g2222
sI1
g0
(g33
g2
Ntp2243
Rp2244
(dp2245
g37
I10
sg38
I1
sg39
I0
sg40
I190
sg41
I10
sg42
I188
sbssg52
(dp2246
sbssI188
(dp2247
g15
g0
(g18
g2
Ntp2248
Rp2249
(dp2250
g22
(lp2251
sg24
S'ovs-sw189'
p2252
sg26
Nsg27
I189
sg28
Nsg29
Nsg30
Nsg31
(dp2253
I0
g2233
ssg52
(dp2254
sbssI189
(dp2255
g15
g0
(g18
g2
Ntp2256
Rp2257
(dp2258
g22
(lp2259
sg24
S'ovs-sw190'
p2260
sg26
Nsg27
I190
sg28
Nsg29
Nsg30
Nsg31
(dp2261
I0
g2244
ssg52
(dp2262
sbssI190
(dp2263
g15
g0
(g18
g2
Ntp2264
Rp2265
(dp2266
g22
(lp2267
sg24
S'ovs-sw191'
p2268
sg26
Nsg27
I191
sg28
Nsg29
Nsg30
Nsg31
(dp2269
I0
g2186
sI1
g0
(g33
g2
Ntp2270
Rp2271
(dp2272
g37
I10
sg38
I1
sg39
I0
sg40
I192
sg41
I10
sg42
I191
sbsI2
g0
(g33
g2
Ntp2273
Rp2274
(dp2275
g37
I10
sg38
I2
sg39
I0
sg40
I193
sg41
I10
sg42
I191
sbssg52
(dp2276
sbssI191
(dp2277
g15
g0
(g18
g2
Ntp2278
Rp2279
(dp2280
g22
(lp2281
sg24
S'ovs-sw192'
p2282
sg26
Nsg27
I192
sg28
Nsg29
Nsg30
Nsg31
(dp2283
I0
g2271
sI1
g0
(g33
g2
Ntp2284
Rp2285
(dp2286
g37
I10
sg38
I1
sg39
I0
sg40
I194
sg41
I10
sg42
I192
sbssg52
(dp2287
sbssI192
(dp2288
g15
g0
(g18
g2
Ntp2289
Rp2290
(dp2291
g22
(lp2292
sg24
S'ovs-sw193'
p2293
sg26
Nsg27
I193
sg28
Nsg29
Nsg30
Nsg31
(dp2294
I0
g2274
sI1
g0
(g33
g2
Ntp2295
Rp2296
(dp2297
g37
I10
sg38
I1
sg39
I0
sg40
I195
sg41
I10
sg42
I193
sbssg52
(dp2298
sbssI193
(dp2299
g15
g0
(g18
g2
Ntp2300
Rp2301
(dp2302
g22
(lp2303
sg24
S'ovs-sw194'
p2304
sg26
Nsg27
I194
sg28
Nsg29
Nsg30
Nsg31
(dp2305
I0
g2285
sI1
g0
(g33
g2
Ntp2306
Rp2307
(dp2308
g37
I10
sg38
I1
sg39
I0
sg40
I196
sg41
I10
sg42
I194
sbssg52
(dp2309
sbssI194
(dp2310
g15
g0
(g18
g2
Ntp2311
Rp2312
(dp2313
g22
(lp2314
sg24
S'ovs-sw195'
p2315
sg26
Nsg27
I195
sg28
Nsg29
Nsg30
Nsg31
(dp2316
I0
g2296
sI1
g0
(g33
g2
Ntp2317
Rp2318
(dp2319
g37
I10
sg38
I1
sg39
I0
sg40
I197
sg41
I10
sg42
I195
sbssg52
(dp2320
sbssI195
(dp2321
g15
g0
(g18
g2
Ntp2322
Rp2323
(dp2324
g22
(lp2325
sg24
S'ovs-sw196'
p2326
sg26
Nsg27
I196
sg28
Nsg29
Nsg30
Nsg31
(dp2327
I0
g2307
ssg52
(dp2328
sbssI196
(dp2329
g15
g0
(g18
g2
Ntp2330
Rp2331
(dp2332
g22
(lp2333
sg24
S'ovs-sw197'
p2334
sg26
Nsg27
I197
sg28
Nsg29
Nsg30
Nsg31
(dp2335
I0
g2318
ssg52
(dp2336
sbssI197
(dp2337
g15
g0
(g18
g2
Ntp2338
Rp2339
(dp2340
g22
(lp2341
sg24
S'ovs-sw198'
p2342
sg26
Nsg27
I198
sg28
Nsg29
Nsg30
Nsg31
(dp2343
I0
g227
sI1
g0
(g33
g2
Ntp2344
Rp2345
(dp2346
g37
I10
sg38
I1
sg39
I0
sg40
I202
sg41
I1
sg42
I198
sbsI2
g0
(g33
g2
Ntp2347
Rp2348
(dp2349
g37
I10
sg38
I2
sg39
I1
sg40
I199
sg41
I1
sg42
I198
sbssg52
(dp2350
sbssI198
(dp2351
g15
g0
(g18
g2
Ntp2352
Rp2353
(dp2354
g22
(lp2355
sg24
S'ovs-sw199'
p2356
sg26
Nsg27
I199
sg28
Nsg29
Nsg30
Nsg31
(dp2357
I0
g224
sI1
g2348
sI2
g0
(g33
g2
Ntp2358
Rp2359
(dp2360
g37
I10
sg38
I2
sg39
I0
sg40
I204
sg41
I1
sg42
I199
sbssg52
(dp2361
sbssI199
(dp2362
g15
g0
(g18
g2
Ntp2363
Rp2364
(dp2365
g22
(lp2366
sg24
S'ovs-sw200'
p2367
sg26
Nsg27
I200
sg28
Nsg29
Nsg30
Nsg31
(dp2368
I0
g0
(g33
g2
Ntp2369
Rp2370
(dp2371
g37
I10
sg38
I0
sg39
I1
sg40
I202
sg41
I1
sg42
I200
sbssg52
(dp2372
sbssI200
(dp2373
g15
g0
(g18
g2
Ntp2374
Rp2375
(dp2376
g22
(lp2377
sg24
S'ovs-sw202'
p2378
sg26
Nsg27
I202
sg28
Nsg29
Nsg30
Nsg31
(dp2379
I0
g2345
sI1
g2370
sI2
g0
(g33
g2
Ntp2380
Rp2381
(dp2382
g37
I10
sg38
I2
sg39
I0
sg40
I203
sg41
I1
sg42
I202
sbssg52
(dp2383
sbssI201
(dp2384
g15
g0
(g18
g2
Ntp2385
Rp2386
(dp2387
g22
(lp2388
sg24
S'ovs-sw203'
p2389
sg26
Nsg27
I203
sg28
Nsg29
Nsg30
Nsg31
(dp2390
I0
g2381
ssg52
(dp2391
sbssI202
(dp2392
g15
g0
(g18
g2
Ntp2393
Rp2394
(dp2395
g22
(lp2396
sg24
S'ovs-sw204'
p2397
sg26
Nsg27
I204
sg28
Nsg29
Nsg30
Nsg31
(dp2398
I0
g2359
sI1
g0
(g33
g2
Ntp2399
Rp2400
(dp2401
g37
I10
sg38
I1
sg39
I0
sg40
I207
sg41
I1
sg42
I204
sbssg52
(dp2402
sbssI203
(dp2403
g15
g0
(g18
g2
Ntp2404
Rp2405
(dp2406
g22
(lp2407
sg24
S'ovs-sw207'
p2408
sg26
Nsg27
I207
sg28
Nsg29
Nsg30
Nsg31
(dp2409
I0
g2400
ssg52
(dp2410
sbsssS'edge_key_dict_factory'
p2411
c__builtin__
dict
p2412
sS'node_dict_factory'
p2413
g2412
sS'edge_attr_dict_factory'
p2414
g2412
sS'edge'
p2415
(dp2416
I1
(dp2417
I2
(dp2418
I0
(dp2419
S'link'
p2420
g35
sssI3
(dp2421
I0
(dp2422
g2420
g44
sssI12
(dp2423
I0
(dp2424
g2420
g47
sssI13
(dp2425
I0
(dp2426
g2420
g50
ssssI2
(dp2427
I1
g2418
sI11
(dp2428
I0
(dp2429
g2420
g62
sssI28
(dp2430
I0
(dp2431
g2420
g65
sssI29
(dp2432
I0
(dp2433
g2420
g68
ssssI3
(dp2434
I1
g2421
sI10
(dp2435
I0
(dp2436
g2420
g79
sssI43
(dp2437
I0
(dp2438
g2420
g85
sssI42
(dp2439
I0
(dp2440
g2420
g82
ssssI4
(dp2441
I7
(dp2442
I0
(dp2443
g2420
g105
sssI52
(dp2444
I0
(dp2445
g2420
g102
sssI53
(dp2446
I0
(dp2447
g2420
g96
sssI5
(dp2448
I0
(dp2449
g2420
g99
ssssI5
(dp2450
I60
(dp2451
I0
(dp2452
g2420
g125
sssI4
g2448
sI61
(dp2453
I0
(dp2454
g2420
g116
sssI6
(dp2455
I0
(dp2456
g2420
g119
sssI7
(dp2457
I0
(dp2458
g2420
g122
ssssI6
(dp2459
I9
(dp2460
I0
(dp2461
g2420
g136
sssI67
(dp2462
I0
(dp2463
g2420
g139
sssI68
(dp2464
I0
(dp2465
g2420
g142
sssI5
g2455
ssI7
(dp2466
I8
(dp2467
I0
(dp2468
g2420
g159
sssI4
g2442
sI5
g2457
sI142
(dp2469
I0
(dp2470
g2420
g153
sssI141
(dp2471
I0
(dp2472
g2420
g156
ssssI8
(dp2473
I9
(dp2474
I0
(dp2475
g2420
g170
sssI156
(dp2476
I0
(dp2477
g2420
g179
sssI11
(dp2478
I0
(dp2479
g2420
g173
sssI155
(dp2480
I0
(dp2481
g2420
g176
sssI7
g2467
ssI9
(dp2482
I8
g2474
sI10
(dp2483
I0
(dp2484
g2420
g190
sssI171
(dp2485
I0
(dp2486
g2420
g193
sssI172
(dp2487
I0
(dp2488
g2420
g196
sssI6
g2460
ssI10
(dp2489
I11
(dp2490
I0
(dp2491
g2420
g207
sssI9
g2483
sI3
g2435
sI181
(dp2492
I0
(dp2493
g2420
g210
sssI182
(dp2494
I0
(dp2495
g2420
g213
ssssI11
(dp2496
I8
g2478
sI2
g2428
sI10
g2490
sI198
(dp2497
I0
(dp2498
g2420
g224
sssI197
(dp2499
I0
(dp2500
g2420
g227
ssssI12
(dp2501
I1
g2423
sI20
(dp2502
I0
(dp2503
g2420
g238
sssI13
(dp2504
I0
(dp2505
g2420
g241
ssssI13
(dp2506
I1
g2425
sI27
(dp2507
I0
(dp2508
g2420
g252
sssI12
g2504
ssI14
(dp2509
I20
(dp2510
I0
(dp2511
g2420
g263
ssssI15
(dp2512
I20
(dp2513
I0
(dp2514
g2420
g274
ssssI16
(dp2515
I20
(dp2516
I0
(dp2517
g2420
g285
ssssI17
(dp2518
I20
(dp2519
I0
(dp2520
g2420
g296
ssssI18
(dp2521
I20
(dp2522
I0
(dp2523
g2420
g307
ssssI19
(dp2524
I20
(dp2525
I0
(dp2526
g2420
g318
ssssI20
(dp2527
I12
g2502
sI14
g2510
sI15
g2513
sI16
g2516
sI17
g2519
sI18
g2522
sI19
g2525
ssI21
(dp2528
I27
(dp2529
I0
(dp2530
g2420
g337
ssssI22
(dp2531
I27
(dp2532
I0
(dp2533
g2420
g348
ssssI23
(dp2534
I27
(dp2535
I0
(dp2536
g2420
g359
ssssI24
(dp2537
I27
(dp2538
I0
(dp2539
g2420
g370
ssssI25
(dp2540
I27
(dp2541
I0
(dp2542
g2420
g381
ssssI26
(dp2543
I27
(dp2544
I0
(dp2545
g2420
g392
ssssI27
(dp2546
I13
g2507
sI21
g2529
sI22
g2532
sI23
g2535
sI24
g2538
sI25
g2541
sI26
g2544
ssI28
(dp2547
I2
g2430
sI36
(dp2548
I0
(dp2549
g2420
g411
sssI29
(dp2550
I0
(dp2551
g2420
g414
ssssI29
(dp2552
I41
(dp2553
I0
(dp2554
g2420
g425
sssI2
g2432
sI28
g2550
ssI30
(dp2555
I34
(dp2556
I0
(dp2557
g2420
g436
ssssI31
(dp2558
I35
(dp2559
I0
(dp2560
g2420
g447
sssI36
(dp2561
I0
(dp2562
g2420
g450
ssssI32
(dp2563
I35
(dp2564
I0
(dp2565
g2420
g461
ssssI33
(dp2566
I36
(dp2567
I0
(dp2568
g2420
g472
ssssI34
(dp2569
I36
(dp2570
I0
(dp2571
g2420
g483
sssI30
g2556
ssI35
(dp2572
I32
g2564
sI31
g2559
ssI36
(dp2573
I33
g2567
sI34
g2570
sI28
g2548
sI31
g2561
ssI37
(dp2574
I41
(dp2575
I0
(dp2576
g2420
g510
ssssI38
(dp2577
I41
(dp2578
I0
(dp2579
g2420
g521
ssssI39
(dp2580
I41
(dp2581
I0
(dp2582
g2420
g532
ssssI40
(dp2583
I41
(dp2584
I0
(dp2585
g2420
g543
ssssI41
(dp2586
I40
g2584
sI39
g2581
sI29
g2553
sI38
g2578
sI37
g2575
ssI42
(dp2587
I43
(dp2588
I0
(dp2589
g2420
g565
sssI3
g2439
sI47
(dp2590
I0
(dp2591
g2420
g562
ssssI43
(dp2592
I51
(dp2593
I0
(dp2594
g2420
g576
sssI42
g2588
sI3
g2437
ssI44
(dp2595
I47
(dp2596
I0
(dp2597
g2420
g587
ssssI45
(dp2598
I47
(dp2599
I0
(dp2600
g2420
g598
ssssI46
(dp2601
I47
(dp2602
I0
(dp2603
g2420
g609
ssssI47
(dp2604
I42
g2590
sI44
g2596
sI45
g2599
sI46
g2602
ssI48
(dp2605
I51
(dp2606
I0
(dp2607
g2420
g628
ssssI49
(dp2608
I51
(dp2609
I0
(dp2610
g2420
g639
ssssI50
(dp2611
I51
(dp2612
I0
(dp2613
g2420
g650
ssssI51
(dp2614
I48
g2606
sI49
g2609
sI50
g2612
sI43
g2593
ssI52
(dp2615
I56
(dp2616
I0
(dp2617
g2420
g669
sssI4
g2444
sI53
(dp2618
I0
(dp2619
g2420
g672
ssssI53
(dp2620
I52
g2618
sI4
g2446
sI57
(dp2621
I0
(dp2622
g2420
g683
ssssI54
(dp2623
I56
(dp2624
I0
(dp2625
g2420
g694
ssssI55
(dp2626
I56
(dp2627
I0
(dp2628
g2420
g705
ssssI56
(dp2629
I52
g2616
sI54
g2624
sI55
g2627
ssI57
(dp2630
I58
(dp2631
I0
(dp2632
g2420
g724
sssI59
(dp2633
I0
(dp2634
g2420
g727
sssI53
g2621
ssI58
(dp2635
I57
g2631
ssI59
(dp2636
I57
g2633
ssI60
(dp2637
I61
(dp2638
I0
(dp2639
g2420
g757
sssI5
g2451
sI63
(dp2640
I0
(dp2641
g2420
g754
ssssI61
(dp2642
I65
(dp2643
I0
(dp2644
g2420
g768
sssI60
g2638
sI5
g2453
ssI62
(dp2645
I63
(dp2646
I0
(dp2647
g2420
g779
ssssI63
(dp2648
I64
(dp2649
I0
(dp2650
g2420
g790
sssI60
g2640
sI62
g2646
ssI64
(dp2651
I63
g2649
ssI65
(dp2652
I66
(dp2653
I0
(dp2654
g2420
g809
sssI61
g2643
ssI66
(dp2655
I65
g2653
ssI67
(dp2656
I68
(dp2657
I0
(dp2658
g2420
g840
sssI69
(dp2659
I0
(dp2660
g2420
g828
sssI70
(dp2661
I0
(dp2662
g2420
g831
sssI71
(dp2663
I0
(dp2664
g2420
g834
sssI72
(dp2665
I0
(dp2666
g2420
g837
sssI6
g2462
ssI68
(dp2667
I67
g2657
sI6
g2464
sI105
(dp2668
I0
(dp2669
g2420
g851
sssI106
(dp2670
I0
(dp2671
g2420
g854
sssI107
(dp2672
I0
(dp2673
g2420
g857
sssI108
(dp2674
I0
(dp2675
g2420
g860
ssssI69
(dp2676
I73
(dp2677
I0
(dp2678
g2420
g874
sssI75
(dp2679
I0
(dp2680
g2420
g877
sssI67
g2659
sI77
(dp2681
I0
(dp2682
g2420
g880
sssI79
(dp2683
I0
(dp2684
g2420
g871
ssssI70
(dp2685
I73
(dp2686
I0
(dp2687
g2420
g894
sssI75
(dp2688
I0
(dp2689
g2420
g897
sssI67
g2661
sI77
(dp2690
I0
(dp2691
g2420
g900
sssI79
(dp2692
I0
(dp2693
g2420
g891
ssssI71
(dp2694
I80
(dp2695
I0
(dp2696
g2420
g911
sssI74
(dp2697
I0
(dp2698
g2420
g914
sssI67
g2663
sI76
(dp2699
I0
(dp2700
g2420
g917
sssI78
(dp2701
I0
(dp2702
g2420
g920
ssssI72
(dp2703
I80
(dp2704
I0
(dp2705
g2420
g931
sssI74
(dp2706
I0
(dp2707
g2420
g934
sssI67
g2665
sI76
(dp2708
I0
(dp2709
g2420
g937
sssI78
(dp2710
I0
(dp2711
g2420
g940
ssssI73
(dp2712
I81
(dp2713
I0
(dp2714
g2420
g951
sssI82
(dp2715
I0
(dp2716
g2420
g954
sssI69
g2677
sI70
g2686
ssI74
(dp2717
I72
g2706
sI81
(dp2718
I0
(dp2719
g2420
g965
sssI82
(dp2720
I0
(dp2721
g2420
g968
sssI71
g2697
ssI75
(dp2722
I83
(dp2723
I0
(dp2724
g2420
g979
sssI84
(dp2725
I0
(dp2726
g2420
g982
sssI69
g2679
sI70
g2688
ssI76
(dp2727
I72
g2708
sI83
(dp2728
I0
(dp2729
g2420
g993
sssI84
(dp2730
I0
(dp2731
g2420
g996
sssI71
g2699
ssI77
(dp2732
I86
(dp2733
I0
(dp2734
g2420
g1007
sssI69
g2681
sI70
g2690
sI85
(dp2735
I0
(dp2736
g2420
g1010
ssssI78
(dp2737
I72
g2710
sI85
(dp2738
I0
(dp2739
g2420
g1021
sssI86
(dp2740
I0
(dp2741
g2420
g1024
sssI71
g2701
ssI79
(dp2742
I88
(dp2743
I0
(dp2744
g2420
g1038
sssI69
g2683
sI70
g2692
sI87
(dp2745
I0
(dp2746
g2420
g1035
ssssI80
(dp2747
I72
g2704
sI88
(dp2748
I0
(dp2749
g2420
g1052
sssI87
(dp2750
I0
(dp2751
g2420
g1049
sssI71
g2695
ssI81
(dp2752
I73
g2713
sI74
g2718
sI90
(dp2753
I0
(dp2754
g2420
g1063
sssI89
(dp2755
I0
(dp2756
g2420
g1066
ssssI82
(dp2757
I73
g2715
sI74
g2720
sI91
(dp2758
I0
(dp2759
g2420
g1077
sssI92
(dp2760
I0
(dp2761
g2420
g1080
ssssI83
(dp2762
I75
g2723
sI76
g2728
sI93
(dp2763
I0
(dp2764
g2420
g1091
sssI94
(dp2765
I0
(dp2766
g2420
g1094
ssssI84
(dp2767
I96
(dp2768
I0
(dp2769
g2420
g1108
sssI75
g2725
sI76
g2730
sI95
(dp2770
I0
(dp2771
g2420
g1105
ssssI85
(dp2772
I97
(dp2773
I0
(dp2774
g2420
g1119
sssI98
(dp2775
I0
(dp2776
g2420
g1122
sssI77
g2735
sI78
g2738
ssI86
(dp2777
I99
(dp2778
I0
(dp2779
g2420
g1133
sssI100
(dp2780
I0
(dp2781
g2420
g1136
sssI77
g2733
sI78
g2740
ssI87
(dp2782
I80
g2750
sI101
(dp2783
I0
(dp2784
g2420
g1147
sssI102
(dp2785
I0
(dp2786
g2420
g1150
sssI79
g2745
ssI88
(dp2787
I80
g2748
sI104
(dp2788
I0
(dp2789
g2420
g1164
sssI103
(dp2790
I0
(dp2791
g2420
g1161
sssI79
g2743
ssI89
(dp2792
I81
g2755
ssI90
(dp2793
I81
g2753
ssI91
(dp2794
I82
g2758
ssI92
(dp2795
I82
g2760
ssI93
(dp2796
I83
g2763
ssI94
(dp2797
I83
g2765
ssI95
(dp2798
I84
g2770
ssI96
(dp2799
I84
g2768
ssI97
(dp2800
I85
g2773
ssI98
(dp2801
I85
g2775
ssI99
(dp2802
I86
g2778
ssI100
(dp2803
I86
g2780
ssI101
(dp2804
I87
g2783
ssI102
(dp2805
I87
g2785
ssI103
(dp2806
I88
g2790
ssI104
(dp2807
I88
g2788
ssI105
(dp2808
I113
(dp2809
I0
(dp2810
g2420
g1306
sssI115
(dp2811
I0
(dp2812
g2420
g1309
sssI68
g2668
sI109
(dp2813
I0
(dp2814
g2420
g1312
sssI111
(dp2815
I0
(dp2816
g2420
g1303
ssssI106
(dp2817
I113
(dp2818
I0
(dp2819
g2420
g1326
sssI115
(dp2820
I0
(dp2821
g2420
g1329
sssI68
g2670
sI109
(dp2822
I0
(dp2823
g2420
g1332
sssI111
(dp2824
I0
(dp2825
g2420
g1323
ssssI107
(dp2826
I112
(dp2827
I0
(dp2828
g2420
g1343
sssI116
(dp2829
I0
(dp2830
g2420
g1349
sssI114
(dp2831
I0
(dp2832
g2420
g1346
sssI68
g2672
sI110
(dp2833
I0
(dp2834
g2420
g1352
ssssI108
(dp2835
I112
(dp2836
I0
(dp2837
g2420
g1363
sssI116
(dp2838
I0
(dp2839
g2420
g1369
sssI114
(dp2840
I0
(dp2841
g2420
g1366
sssI68
g2674
sI110
(dp2842
I0
(dp2843
g2420
g1372
ssssI109
(dp2844
I105
g2813
sI106
g2822
sI117
(dp2845
I0
(dp2846
g2420
g1383
sssI118
(dp2847
I0
(dp2848
g2420
g1386
ssssI110
(dp2849
I107
g2833
sI108
g2842
sI117
(dp2850
I0
(dp2851
g2420
g1397
sssI118
(dp2852
I0
(dp2853
g2420
g1400
ssssI111
(dp2854
I120
(dp2855
I0
(dp2856
g2420
g1414
sssI105
g2815
sI106
g2824
sI119
(dp2857
I0
(dp2858
g2420
g1411
ssssI112
(dp2859
I120
(dp2860
I0
(dp2861
g2420
g1428
sssI107
g2827
sI108
g2836
sI119
(dp2862
I0
(dp2863
g2420
g1425
ssssI113
(dp2864
I105
g2809
sI106
g2818
sI122
(dp2865
I0
(dp2866
g2420
g1439
sssI121
(dp2867
I0
(dp2868
g2420
g1442
ssssI114
(dp2869
I121
(dp2870
I0
(dp2871
g2420
g1453
sssI122
(dp2872
I0
(dp2873
g2420
g1456
sssI107
g2831
sI108
g2840
ssI115
(dp2874
I105
g2811
sI106
g2820
sI123
(dp2875
I0
(dp2876
g2420
g1467
sssI124
(dp2877
I0
(dp2878
g2420
g1470
ssssI116
(dp2879
I123
(dp2880
I0
(dp2881
g2420
g1481
sssI124
(dp2882
I0
(dp2883
g2420
g1484
sssI107
g2829
sI108
g2838
ssI117
(dp2884
I126
(dp2885
I0
(dp2886
g2420
g1495
sssI109
g2845
sI110
g2850
sI125
(dp2887
I0
(dp2888
g2420
g1498
ssssI118
(dp2889
I128
(dp2890
I0
(dp2891
g2420
g1512
sssI109
g2847
sI110
g2852
sI127
(dp2892
I0
(dp2893
g2420
g1509
ssssI119
(dp2894
I112
g2862
sI129
(dp2895
I0
(dp2896
g2420
g1523
sssI130
(dp2897
I0
(dp2898
g2420
g1526
sssI111
g2857
ssI120
(dp2899
I112
g2860
sI131
(dp2900
I0
(dp2901
g2420
g1537
sssI132
(dp2902
I0
(dp2903
g2420
g1540
sssI111
g2855
ssI121
(dp2904
I113
g2867
sI114
g2870
sI133
(dp2905
I0
(dp2906
g2420
g1551
sssI134
(dp2907
I0
(dp2908
g2420
g1554
ssssI122
(dp2909
I136
(dp2910
I0
(dp2911
g2420
g1568
sssI113
g2865
sI114
g2872
sI135
(dp2912
I0
(dp2913
g2420
g1565
ssssI123
(dp2914
I137
(dp2915
I0
(dp2916
g2420
g1579
sssI138
(dp2917
I0
(dp2918
g2420
g1582
sssI115
g2875
sI116
g2880
ssI124
(dp2919
I140
(dp2920
I0
(dp2921
g2420
g1596
sssI115
g2877
sI116
g2882
sI139
(dp2922
I0
(dp2923
g2420
g1593
ssssI125
(dp2924
I117
g2887
ssI126
(dp2925
I117
g2885
ssI127
(dp2926
I118
g2892
ssI128
(dp2927
I118
g2890
ssI129
(dp2928
I119
g2895
ssI130
(dp2929
I119
g2897
ssI131
(dp2930
I120
g2900
ssI132
(dp2931
I120
g2902
ssI133
(dp2932
I121
g2905
ssI134
(dp2933
I121
g2907
ssI135
(dp2934
I122
g2912
ssI136
(dp2935
I122
g2910
ssI137
(dp2936
I123
g2915
ssI138
(dp2937
I123
g2917
ssI139
(dp2938
I124
g2922
ssI140
(dp2939
I124
g2920
ssI141
(dp2940
I148
(dp2941
I0
(dp2942
g2420
g1735
sssI142
(dp2943
I0
(dp2944
g2420
g1738
sssI7
g2471
ssI142
(dp2945
I154
(dp2946
I0
(dp2947
g2420
g1749
sssI141
g2943
sI7
g2469
ssI143
(dp2948
I148
(dp2949
I0
(dp2950
g2420
g1760
ssssI144
(dp2951
I148
(dp2952
I0
(dp2953
g2420
g1771
ssssI145
(dp2954
I148
(dp2955
I0
(dp2956
g2420
g1782
ssssI146
(dp2957
I148
(dp2958
I0
(dp2959
g2420
g1793
ssssI147
(dp2960
I148
(dp2961
I0
(dp2962
g2420
g1804
ssssI148
(dp2963
I141
g2941
sI143
g2949
sI144
g2952
sI145
g2955
sI146
g2958
sI147
g2961
ssI149
(dp2964
I154
(dp2965
I0
(dp2966
g2420
g1823
ssssI150
(dp2967
I154
(dp2968
I0
(dp2969
g2420
g1834
ssssI151
(dp2970
I154
(dp2971
I0
(dp2972
g2420
g1845
ssssI152
(dp2973
I154
(dp2974
I0
(dp2975
g2420
g1856
ssssI153
(dp2976
I154
(dp2977
I0
(dp2978
g2420
g1867
ssssI154
(dp2979
I142
g2946
sI149
g2965
sI150
g2968
sI151
g2971
sI152
g2974
sI153
g2977
ssI155
(dp2980
I8
g2480
sI156
(dp2981
I0
(dp2982
g2420
g1886
sssI157
(dp2983
I0
(dp2984
g2420
g1889
ssssI156
(dp2985
I8
g2476
sI155
g2981
sI164
(dp2986
I0
(dp2987
g2420
g1900
ssssI157
(dp2988
I155
g2983
sI158
(dp2989
I0
(dp2990
g2420
g1914
sssI159
(dp2991
I0
(dp2992
g2420
g1911
ssssI158
(dp2993
I160
(dp2994
I0
(dp2995
g2420
g1925
sssI157
g2989
ssI159
(dp2996
I161
(dp2997
I0
(dp2998
g2420
g1936
sssI157
g2991
ssI160
(dp2999
I162
(dp3000
I0
(dp3001
g2420
g1947
sssI158
g2994
ssI161
(dp3002
I163
(dp3003
I0
(dp3004
g2420
g1958
sssI159
g2997
ssI162
(dp3005
I160
g3000
ssI163
(dp3006
I161
g3003
ssI164
(dp3007
I156
g2986
sI165
(dp3008
I0
(dp3009
g2420
g1985
sssI166
(dp3010
I0
(dp3011
g2420
g1988
ssssI165
(dp3012
I164
g3008
sI167
(dp3013
I0
(dp3014
g2420
g1999
ssssI166
(dp3015
I168
(dp3016
I0
(dp3017
g2420
g2010
sssI164
g3010
ssI167
(dp3018
I169
(dp3019
I0
(dp3020
g2420
g2021
sssI165
g3013
ssI168
(dp3021
I170
(dp3022
I0
(dp3023
g2420
g2032
sssI166
g3016
ssI169
(dp3024
I167
g3019
ssI170
(dp3025
I168
g3022
ssI171
(dp3026
I9
g2485
sI172
(dp3027
I0
(dp3028
g2420
g2062
sssI175
(dp3029
I0
(dp3030
g2420
g2059
ssssI172
(dp3031
I9
g2487
sI171
g3027
sI177
(dp3032
I0
(dp3033
g2420
g2073
ssssI173
(dp3034
I175
(dp3035
I0
(dp3036
g2420
g2084
ssssI174
(dp3037
I176
(dp3038
I0
(dp3039
g2420
g2095
ssssI175
(dp3040
I176
(dp3041
I0
(dp3042
g2420
g2106
sssI171
g3029
sI173
g3035
ssI176
(dp3043
I174
g3038
sI175
g3041
ssI177
(dp3044
I180
(dp3045
I0
(dp3046
g2420
g2131
sssI178
(dp3047
I0
(dp3048
g2420
g2125
sssI179
(dp3049
I0
(dp3050
g2420
g2128
sssI172
g3032
ssI178
(dp3051
I177
g3047
sI180
(dp3052
I0
(dp3053
g2420
g2142
ssssI179
(dp3054
I177
g3049
sI180
(dp3055
I0
(dp3056
g2420
g2153
ssssI180
(dp3057
I177
g3045
sI178
g3052
sI179
g3055
ssI181
(dp3058
I10
g2492
sI182
(dp3059
I0
(dp3060
g2420
g2175
sssI183
(dp3061
I0
(dp3062
g2420
g2172
ssssI182
(dp3063
I10
g2494
sI181
g3059
sI190
(dp3064
I0
(dp3065
g2420
g2186
ssssI183
(dp3066
I184
(dp3067
I0
(dp3068
g2420
g2197
sssI185
(dp3069
I0
(dp3070
g2420
g2200
sssI181
g3061
ssI184
(dp3071
I186
(dp3072
I0
(dp3073
g2420
g2211
sssI183
g3067
ssI185
(dp3074
I187
(dp3075
I0
(dp3076
g2420
g2222
sssI183
g3069
ssI186
(dp3077
I184
g3072
sI188
(dp3078
I0
(dp3079
g2420
g2233
ssssI187
(dp3080
I185
g3075
sI189
(dp3081
I0
(dp3082
g2420
g2244
ssssI188
(dp3083
I186
g3078
ssI189
(dp3084
I187
g3081
ssI190
(dp3085
I192
(dp3086
I0
(dp3087
g2420
g2274
sssI182
g3064
sI191
(dp3088
I0
(dp3089
g2420
g2271
ssssI191
(dp3090
I193
(dp3091
I0
(dp3092
g2420
g2285
sssI190
g3088
ssI192
(dp3093
I194
(dp3094
I0
(dp3095
g2420
g2296
sssI190
g3086
ssI193
(dp3096
I195
(dp3097
I0
(dp3098
g2420
g2307
sssI191
g3091
ssI194
(dp3099
I192
g3094
sI196
(dp3100
I0
(dp3101
g2420
g2318
ssssI195
(dp3102
I193
g3097
ssI196
(dp3103
I194
g3100
ssI197
(dp3104
I200
(dp3105
I0
(dp3106
g2420
g2345
sssI11
g2499
sI198
(dp3107
I0
(dp3108
g2420
g2348
ssssI198
(dp3109
I202
(dp3110
I0
(dp3111
g2420
g2359
sssI11
g2497
sI197
g3107
ssI199
(dp3112
I200
(dp3113
I0
(dp3114
g2420
g2370
ssssI200
(dp3115
I201
(dp3116
I0
(dp3117
g2420
g2381
sssI197
g3105
sI199
g3113
ssI201
(dp3118
I200
g3116
ssI202
(dp3119
I203
(dp3120
I0
(dp3121
g2420
g2400
sssI198
g3110
ssI203
(dp3122
I202
g3120
sssS'graph'
p3123
(dp3124
sS'adjlist_dict_factory'
p3125
g2412
sS'adj'
p3126
g2416
sbsb.